(imatplotlib.font_manager
FontManager
p1
(dp2
S'afm_lookup_cache'
p3
(dp4
sS'ttflist'
p5
(lp6
ccopy_reg
_reconstructor
p7
(cmatplotlib.font_manager
FontEntry
p8
c__builtin__
object
p9
NtRp10
(dp11
S'style'
p12
S'normal'
p13
sS'name'
p14
S'Bitstream Vera Sans Mono'
p15
sS'weight'
p16
I700
sS'stretch'
p17
g13
sS'variant'
p18
g13
sS'fname'
p19
S'/Library/Frameworks/Python.framework/Versions/2.7/lib/python2.7/site-packages/matplotlib/mpl-data/fonts/ttf/VeraMoBd.ttf'
p20
sS'size'
p21
S'scalable'
p22
sbag7
(g8
g9
NtRp23
(dp24
g12
g13
sg14
S'cmmi10'
p25
sg16
I400
sg17
g13
sg18
g13
sg19
S'/Library/Frameworks/Python.framework/Versions/2.7/lib/python2.7/site-packages/matplotlib/mpl-data/fonts/ttf/cmmi10.ttf'
p26
sg21
g22
sbag7
(g8
g9
NtRp27
(dp28
g12
S'italic'
p29
sg14
S'STIXGeneral'
p30
sg16
I400
sg17
g13
sg18
g13
sg19
S'/Library/Frameworks/Python.framework/Versions/2.7/lib/python2.7/site-packages/matplotlib/mpl-data/fonts/ttf/STIXGeneralItalic.ttf'
p31
sg21
g22
sbag7
(g8
g9
NtRp32
(dp33
g12
g13
sg14
S'STIXSizeFiveSym'
p34
sg16
I400
sg17
g13
sg18
g13
sg19
S'/Library/Frameworks/Python.framework/Versions/2.7/lib/python2.7/site-packages/matplotlib/mpl-data/fonts/ttf/STIXSizFiveSymReg.ttf'
p35
sg21
g22
sbag7
(g8
g9
NtRp36
(dp37
g12
g13
sg14
S'STIXSizeFourSym'
p38
sg16
I400
sg17
g13
sg18
g13
sg19
S'/Library/Frameworks/Python.framework/Versions/2.7/lib/python2.7/site-packages/matplotlib/mpl-data/fonts/ttf/STIXSizFourSymReg.ttf'
p39
sg21
g22
sbag7
(g8
g9
NtRp40
(dp41
g12
g13
sg14
S'STIXSizeOneSym'
p42
sg16
I400
sg17
g13
sg18
g13
sg19
S'/Library/Frameworks/Python.framework/Versions/2.7/lib/python2.7/site-packages/matplotlib/mpl-data/fonts/ttf/STIXSizOneSymReg.ttf'
p43
sg21
g22
sbag7
(g8
g9
NtRp44
(dp45
g12
g13
sg14
S'cmr10'
p46
sg16
I400
sg17
g13
sg18
g13
sg19
S'/Library/Frameworks/Python.framework/Versions/2.7/lib/python2.7/site-packages/matplotlib/mpl-data/fonts/ttf/cmr10.ttf'
p47
sg21
g22
sbag7
(g8
g9
NtRp48
(dp49
g12
S'oblique'
p50
sg14
S'Bitstream Vera Sans'
p51
sg16
I400
sg17
g13
sg18
g13
sg19
S'/Library/Frameworks/Python.framework/Versions/2.7/lib/python2.7/site-packages/matplotlib/mpl-data/fonts/ttf/VeraIt.ttf'
p52
sg21
g22
sbag7
(g8
g9
NtRp53
(dp54
g12
g13
sg14
S'STIXSizeThreeSym'
p55
sg16
I700
sg17
g13
sg18
g13
sg19
S'/Library/Frameworks/Python.framework/Versions/2.7/lib/python2.7/site-packages/matplotlib/mpl-data/fonts/ttf/STIXSizThreeSymBol.ttf'
p56
sg21
g22
sbag7
(g8
g9
NtRp57
(dp58
g12
g13
sg14
S'STIXSizeThreeSym'
p59
sg16
I400
sg17
g13
sg18
g13
sg19
S'/Library/Frameworks/Python.framework/Versions/2.7/lib/python2.7/site-packages/matplotlib/mpl-data/fonts/ttf/STIXSizThreeSymReg.ttf'
p60
sg21
g22
sbag7
(g8
g9
NtRp61
(dp62
g12
g29
sg14
S'STIXGeneral'
p63
sg16
I700
sg17
g13
sg18
g13
sg19
S'/Library/Frameworks/Python.framework/Versions/2.7/lib/python2.7/site-packages/matplotlib/mpl-data/fonts/ttf/STIXGeneralBolIta.ttf'
p64
sg21
g22
sbag7
(g8
g9
NtRp65
(dp66
g12
g13
sg14
S'Bitstream Vera Sans Mono'
p67
sg16
I400
sg17
g13
sg18
g13
sg19
S'/Library/Frameworks/Python.framework/Versions/2.7/lib/python2.7/site-packages/matplotlib/mpl-data/fonts/ttf/VeraMono.ttf'
p68
sg21
g22
sbag7
(g8
g9
NtRp69
(dp70
g12
g13
sg14
S'cmex10'
p71
sg16
I400
sg17
g13
sg18
g13
sg19
S'/Library/Frameworks/Python.framework/Versions/2.7/lib/python2.7/site-packages/matplotlib/mpl-data/fonts/ttf/cmex10.ttf'
p72
sg21
g22
sbag7
(g8
g9
NtRp73
(dp74
g12
g50
sg14
S'Bitstream Vera Sans Mono'
p75
sg16
I700
sg17
g13
sg18
g13
sg19
S'/Library/Frameworks/Python.framework/Versions/2.7/lib/python2.7/site-packages/matplotlib/mpl-data/fonts/ttf/VeraMoBI.ttf'
p76
sg21
g22
sbag7
(g8
g9
NtRp77
(dp78
g12
g13
sg14
S'STIXGeneral'
p79
sg16
I400
sg17
g13
sg18
g13
sg19
S'/Library/Frameworks/Python.framework/Versions/2.7/lib/python2.7/site-packages/matplotlib/mpl-data/fonts/ttf/STIXGeneral.ttf'
p80
sg21
g22
sbag7
(g8
g9
NtRp81
(dp82
g12
g50
sg14
S'Bitstream Vera Sans Mono'
p83
sg16
I400
sg17
g13
sg18
g13
sg19
S'/Library/Frameworks/Python.framework/Versions/2.7/lib/python2.7/site-packages/matplotlib/mpl-data/fonts/ttf/VeraMoIt.ttf'
p84
sg21
g22
sbag7
(g8
g9
NtRp85
(dp86
g12
g13
sg14
S'STIXSizeTwoSym'
p87
sg16
I700
sg17
g13
sg18
g13
sg19
S'/Library/Frameworks/Python.framework/Versions/2.7/lib/python2.7/site-packages/matplotlib/mpl-data/fonts/ttf/STIXSizTwoSymBol.ttf'
p88
sg21
g22
sbag7
(g8
g9
NtRp89
(dp90
g12
g50
sg14
S'Bitstream Vera Sans'
p91
sg16
I700
sg17
g13
sg18
g13
sg19
S'/Library/Frameworks/Python.framework/Versions/2.7/lib/python2.7/site-packages/matplotlib/mpl-data/fonts/ttf/VeraBI.ttf'
p92
sg21
g22
sbag7
(g8
g9
NtRp93
(dp94
g12
g29
sg14
S'STIXNonUnicode'
p95
sg16
I400
sg17
g13
sg18
g13
sg19
S'/Library/Frameworks/Python.framework/Versions/2.7/lib/python2.7/site-packages/matplotlib/mpl-data/fonts/ttf/STIXNonUniIta.ttf'
p96
sg21
g22
sbag7
(g8
g9
NtRp97
(dp98
g12
g13
sg14
S'cmb10'
p99
sg16
I400
sg17
g13
sg18
g13
sg19
S'/Library/Frameworks/Python.framework/Versions/2.7/lib/python2.7/site-packages/matplotlib/mpl-data/fonts/ttf/cmb10.ttf'
p100
sg21
g22
sbag7
(g8
g9
NtRp101
(dp102
g12
g13
sg14
S'cmss10'
p103
sg16
I400
sg17
g13
sg18
g13
sg19
S'/Library/Frameworks/Python.framework/Versions/2.7/lib/python2.7/site-packages/matplotlib/mpl-data/fonts/ttf/cmss10.ttf'
p104
sg21
g22
sbag7
(g8
g9
NtRp105
(dp106
g12
g13
sg14
S'Bitstream Vera Sans'
p107
sg16
I700
sg17
g13
sg18
g13
sg19
S'/Library/Frameworks/Python.framework/Versions/2.7/lib/python2.7/site-packages/matplotlib/mpl-data/fonts/ttf/VeraBd.ttf'
p108
sg21
g22
sbag7
(g8
g9
NtRp109
(dp110
g12
g13
sg14
S'STIXSizeOneSym'
p111
sg16
I700
sg17
g13
sg18
g13
sg19
S'/Library/Frameworks/Python.framework/Versions/2.7/lib/python2.7/site-packages/matplotlib/mpl-data/fonts/ttf/STIXSizOneSymBol.ttf'
p112
sg21
g22
sbag7
(g8
g9
NtRp113
(dp114
g12
g13
sg14
S'STIXSizeFourSym'
p115
sg16
I700
sg17
g13
sg18
g13
sg19
S'/Library/Frameworks/Python.framework/Versions/2.7/lib/python2.7/site-packages/matplotlib/mpl-data/fonts/ttf/STIXSizFourSymBol.ttf'
p116
sg21
g22
sbag7
(g8
g9
NtRp117
(dp118
g12
g29
sg14
S'STIXNonUnicode'
p119
sg16
I700
sg17
g13
sg18
g13
sg19
S'/Library/Frameworks/Python.framework/Versions/2.7/lib/python2.7/site-packages/matplotlib/mpl-data/fonts/ttf/STIXNonUniBolIta.ttf'
p120
sg21
g22
sbag7
(g8
g9
NtRp121
(dp122
g12
g13
sg14
S'STIXNonUnicode'
p123
sg16
I700
sg17
g13
sg18
g13
sg19
S'/Library/Frameworks/Python.framework/Versions/2.7/lib/python2.7/site-packages/matplotlib/mpl-data/fonts/ttf/STIXNonUniBol.ttf'
p124
sg21
g22
sbag7
(g8
g9
NtRp125
(dp126
g12
g13
sg14
S'STIXNonUnicode'
p127
sg16
I400
sg17
g13
sg18
g13
sg19
S'/Library/Frameworks/Python.framework/Versions/2.7/lib/python2.7/site-packages/matplotlib/mpl-data/fonts/ttf/STIXNonUni.ttf'
p128
sg21
g22
sbag7
(g8
g9
NtRp129
(dp130
g12
g13
sg14
S'Bitstream Vera Serif'
p131
sg16
I700
sg17
g13
sg18
g13
sg19
S'/Library/Frameworks/Python.framework/Versions/2.7/lib/python2.7/site-packages/matplotlib/mpl-data/fonts/ttf/VeraSeBd.ttf'
p132
sg21
g22
sbag7
(g8
g9
NtRp133
(dp134
g12
g13
sg14
S'cmsy10'
p135
sg16
I400
sg17
g13
sg18
g13
sg19
S'/Library/Frameworks/Python.framework/Versions/2.7/lib/python2.7/site-packages/matplotlib/mpl-data/fonts/ttf/cmsy10.ttf'
p136
sg21
g22
sbag7
(g8
g9
NtRp137
(dp138
g12
g13
sg14
S'Bitstream Vera Sans'
p139
sg16
I400
sg17
g13
sg18
g13
sg19
S'/Library/Frameworks/Python.framework/Versions/2.7/lib/python2.7/site-packages/matplotlib/mpl-data/fonts/ttf/Vera.ttf'
p140
sg21
g22
sbag7
(g8
g9
NtRp141
(dp142
g12
g13
sg14
S'STIXGeneral'
p143
sg16
I700
sg17
g13
sg18
g13
sg19
S'/Library/Frameworks/Python.framework/Versions/2.7/lib/python2.7/site-packages/matplotlib/mpl-data/fonts/ttf/STIXGeneralBol.ttf'
p144
sg21
g22
sbag7
(g8
g9
NtRp145
(dp146
g12
g13
sg14
S'cmtt10'
p147
sg16
I400
sg17
g13
sg18
g13
sg19
S'/Library/Frameworks/Python.framework/Versions/2.7/lib/python2.7/site-packages/matplotlib/mpl-data/fonts/ttf/cmtt10.ttf'
p148
sg21
g22
sbag7
(g8
g9
NtRp149
(dp150
g12
g13
sg14
S'Bitstream Vera Serif'
p151
sg16
I400
sg17
g13
sg18
g13
sg19
S'/Library/Frameworks/Python.framework/Versions/2.7/lib/python2.7/site-packages/matplotlib/mpl-data/fonts/ttf/VeraSe.ttf'
p152
sg21
g22
sbag7
(g8
g9
NtRp153
(dp154
g12
g13
sg14
S'STIXSizeTwoSym'
p155
sg16
I400
sg17
g13
sg18
g13
sg19
S'/Library/Frameworks/Python.framework/Versions/2.7/lib/python2.7/site-packages/matplotlib/mpl-data/fonts/ttf/STIXSizTwoSymReg.ttf'
p156
sg21
g22
sbag7
(g8
g9
NtRp157
(dp158
g12
g13
sg14
S'Serto Mardin'
p159
sg16
I700
sg17
g13
sg18
g13
sg19
S'/usr/X11R6/lib/X11/fonts/OTF/SyrCOMMardinBold.otf'
p160
sg21
g22
sbag7
(g8
g9
NtRp161
(dp162
g12
g29
sg14
S'Trebuchet MS'
p163
sg16
I400
sg17
g13
sg18
g13
sg19
S'/Library/Fonts/Trebuchet MS Italic.ttf'
p164
sg21
g22
sbag7
(g8
g9
NtRp165
(dp166
g12
g13
sg14
S'Serto Kharput'
p167
sg16
I400
sg17
g13
sg18
g13
sg19
S'/usr/X11/share/fonts/OTF/SyrCOMKharput.otf'
p168
sg21
g22
sbag7
(g8
g9
NtRp169
(dp170
g12
g13
sg14
S'Hoefler Text'
p171
sg16
I400
sg17
g13
sg18
g13
sg19
S'/Library/Fonts/Hoefler Text Ornaments.ttf'
p172
sg21
g22
sbag7
(g8
g9
NtRp173
(dp174
g12
g29
sg14
S'New Peninim MT'
p175
sg16
I700
sg17
g13
sg18
g13
sg19
S'/Library/Fonts/NewPeninimMTBoldInclined.ttf'
p176
sg21
g22
sbag7
(g8
g9
NtRp177
(dp178
g12
g13
sg14
S'Mshtakan'
p179
sg16
I400
sg17
g13
sg18
g13
sg19
S'/Library/Fonts/MshtakanRegular.ttf'
p180
sg21
g22
sbag7
(g8
g9
NtRp181
(dp182
g12
g13
sg14
S'Estrangelo Nisibin Outline'
p183
sg16
I400
sg17
g13
sg18
g13
sg19
S'/usr/X11/share/fonts/OTF/SyrCOMNisibinOutline.otf'
p184
sg21
g22
sbag7
(g8
g9
NtRp185
(dp186
g12
g13
sg14
S'Hiragino Mincho ProN'
p187
sg16
I700
sg17
g13
sg18
g13
sg19
S'/System/Library/Fonts/\xe3\x83\x92\xe3\x83\xa9\xe3\x82\xad\xe3\x82\x99\xe3\x83\x8e\xe6\x98\x8e\xe6\x9c\x9d ProN W6.otf'
p188
sg21
g22
sbag7
(g8
g9
NtRp189
(dp190
g12
g13
sg14
S'Osaka'
p191
sg16
I400
sg17
g13
sg18
g13
sg19
S'/Library/Fonts/Osaka.ttf'
p192
sg21
g22
sbag7
(g8
g9
NtRp193
(dp194
g12
g50
sg14
S'Luxi Mono'
p195
sg16
I400
sg17
g13
sg18
g13
sg19
S'/usr/X11/lib/X11/fonts/TTF/luximri.ttf'
p196
sg21
g22
sbag7
(g8
g9
NtRp197
(dp198
g12
g13
sg14
S'Verdana'
p199
sg16
I700
sg17
g13
sg18
g13
sg19
S'/Library/Fonts/Verdana Bold.ttf'
p200
sg21
g22
sbag7
(g8
g9
NtRp201
(dp202
g12
g13
sg14
S'STIXIntegralsUp'
p203
sg16
I400
sg17
g13
sg18
g13
sg19
S'/Library/Fonts/STIXIntUpReg.otf'
p204
sg21
g22
sbag7
(g8
g9
NtRp205
(dp206
g12
g13
sg14
S'LiHei Pro'
p207
sg16
I400
sg17
g13
sg18
g13
sg19
S'/Library/Fonts/\xe5\x84\xb7\xe9\xbb\x91 Pro.ttf'
p208
sg21
g22
sbag7
(g8
g9
NtRp209
(dp210
g12
g13
sg14
S'Arial Unicode MS'
p211
sg16
I400
sg17
g13
sg18
g13
sg19
S'/Library/Fonts/Arial Unicode.ttf'
p212
sg21
g22
sbag7
(g8
g9
NtRp213
(dp214
g12
g13
sg14
S'Goha-Tibeb Zemen'
p215
sg16
I400
sg17
g13
sg18
g13
sg19
S'/usr/X11/share/fonts/OTF/GohaTibebZemen.otf'
p216
sg21
g22
sbag7
(g8
g9
NtRp217
(dp218
g12
g13
sg14
S'STIXSizeThreeSym'
p219
sg16
I400
sg17
g13
sg18
g13
sg19
S'/Library/Fonts/STIXSizThreeSymReg.otf'
p220
sg21
g22
sbag7
(g8
g9
NtRp221
(dp222
g12
g50
sg14
S'Luxi Sans'
p223
sg16
I400
sg17
g13
sg18
g13
sg19
S'/usr/X11/lib/X11/fonts/TTF/luxisri.ttf'
p224
sg21
g22
sbag7
(g8
g9
NtRp225
(dp226
g12
g13
sg14
S'Estrangelo Nisibin'
p227
sg16
I400
sg17
g13
sg18
g13
sg19
S'/usr/X11/lib/X11/fonts/OTF/SyrCOMNisibin.otf'
p228
sg21
g22
sbag7
(g8
g9
NtRp229
(dp230
g12
g13
sg14
S'Estrangelo Talada'
p231
sg16
I400
sg17
g13
sg18
g13
sg19
S'/usr/X11R6/lib/X11/fonts/OTF/SyrCOMTalada.otf'
p232
sg21
g22
sbag7
(g8
g9
NtRp233
(dp234
g12
g50
sg14
S'Luxi Serif'
p235
sg16
I400
sg17
g13
sg18
g13
sg19
S'/usr/X11R6/lib/X11/fonts/TTF/luxirri.ttf'
p236
sg21
g22
sbag7
(g8
g9
NtRp237
(dp238
g12
g13
sg14
S'New Peninim MT'
p239
sg16
I400
sg17
g13
sg18
g13
sg19
S'/Library/Fonts/NewPeninimMT.ttf'
p240
sg21
g22
sbag7
(g8
g9
NtRp241
(dp242
g12
g13
sg14
S'Times New Roman'
p243
sg16
I500
sg17
g13
sg18
g13
sg19
S'/Library/Fonts/Times New Roman.ttf'
p244
sg21
g22
sbag7
(g8
g9
NtRp245
(dp246
g12
g13
sg14
S'Luxi Mono'
p247
sg16
I400
sg17
g13
sg18
g13
sg19
S'/usr/X11/share/fonts/TTF/luximr.ttf'
p248
sg21
g22
sbag7
(g8
g9
NtRp249
(dp250
g12
g13
sg14
S'Arial'
p251
sg16
I400
sg17
g13
sg18
g13
sg19
S'/Library/Fonts/Arial.ttf'
p252
sg21
g22
sbag7
(g8
g9
NtRp253
(dp254
g12
g13
sg14
S'Raanana'
p255
sg16
I400
sg17
g13
sg18
g13
sg19
S'/Library/Fonts/Raanana.ttf'
p256
sg21
g22
sbag7
(g8
g9
NtRp257
(dp258
g12
g50
sg14
S'Luxi Mono'
p259
sg16
I700
sg17
g13
sg18
g13
sg19
S'/usr/X11/share/fonts/TTF/luximbi.ttf'
p260
sg21
g22
sbag7
(g8
g9
NtRp261
(dp262
g12
g13
sg14
S'Gujarati MT'
p263
sg16
I700
sg17
g13
sg18
g13
sg19
S'/Library/Fonts/GujaratiMTBold.ttf'
p264
sg21
g22
sbag7
(g8
g9
NtRp265
(dp266
g12
g13
sg14
S'Arial Narrow'
p267
sg16
I400
sg17
S'condensed'
p268
sg18
g13
sg19
S'/Library/Fonts/Arial Narrow.ttf'
p269
sg21
g22
sbag7
(g8
g9
NtRp270
(dp271
g12
g50
sg14
S'Mshtakan'
p272
sg16
I400
sg17
g13
sg18
g13
sg19
S'/Library/Fonts/MshtakanOblique.ttf'
p273
sg21
g22
sbag7
(g8
g9
NtRp274
(dp275
g12
g13
sg14
S'Hiragino Kaku Gothic Pro'
p276
sg16
I400
sg17
g13
sg18
g13
sg19
S'/Library/Fonts/\xe3\x83\x92\xe3\x83\xa9\xe3\x82\xad\xe3\x82\x99\xe3\x83\x8e\xe8\xa7\x92\xe3\x82\xb3\xe3\x82\x99 Pro W3.otf'
p277
sg21
g22
sbag7
(g8
g9
NtRp278
(dp279
g12
g13
sg14
S'Serto Batnan'
p280
sg16
I700
sg17
g13
sg18
g13
sg19
S'/usr/X11/lib/X11/fonts/OTF/SyrCOMBatnanBold.otf'
p281
sg21
g22
sbag7
(g8
g9
NtRp282
(dp283
g12
g13
sg14
S'AppleMyungjo'
p284
sg16
I400
sg17
g13
sg18
g13
sg19
S'/Library/Fonts/AppleMyungjo.ttf'
p285
sg21
g22
sbag7
(g8
g9
NtRp286
(dp287
g12
g50
sg14
S'Luxi Sans'
p288
sg16
I700
sg17
g13
sg18
g13
sg19
S'/usr/X11/lib/X11/fonts/TTF/luxisbi.ttf'
p289
sg21
g22
sbag7
(g8
g9
NtRp290
(dp291
g12
g13
sg14
S'Tamil Sangam MN'
p292
sg16
I400
sg17
g13
sg18
g13
sg19
S'/Library/Fonts/Tamil Sangam MN.ttf'
p293
sg21
g22
sbag7
(g8
g9
NtRp294
(dp295
g12
g13
sg14
S'Serto Jerusalem Outline'
p296
sg16
I400
sg17
g13
sg18
g13
sg19
S'/usr/X11/lib/X11/fonts/OTF/SyrCOMJerusalemOutline.otf'
p297
sg21
g22
sbag7
(g8
g9
NtRp298
(dp299
g12
g13
sg14
S'Zapf Dingbats'
p300
sg16
I400
sg17
g13
sg18
g13
sg19
S'/System/Library/Fonts/ZapfDingbats.ttf'
p301
sg21
g22
sbag7
(g8
g9
NtRp302
(dp303
g12
g13
sg14
S'Verdana'
p304
sg16
I400
sg17
g13
sg18
g13
sg19
S'/Library/Fonts/Verdana.ttf'
p305
sg21
g22
sbag7
(g8
g9
NtRp306
(dp307
g12
g13
sg14
S'Corsiva Hebrew'
p308
sg16
I400
sg17
g13
sg18
g13
sg19
S'/Library/Fonts/Corsiva.ttf'
p309
sg21
g22
sbag7
(g8
g9
NtRp310
(dp311
g12
g13
sg14
S'STIXIntegralsD'
p312
sg16
I700
sg17
g13
sg18
g13
sg19
S'/Library/Fonts/STIXIntDBol.otf'
p313
sg21
g22
sbag7
(g8
g9
NtRp314
(dp315
g12
g13
sg14
S'Estrangelo Antioch'
p316
sg16
I400
sg17
g13
sg18
g13
sg19
S'/usr/X11R6/lib/X11/fonts/OTF/SyrCOMAntioch.otf'
p317
sg21
g22
sbag7
(g8
g9
NtRp318
(dp319
g12
g13
sg14
S'Apple LiSung'
p320
sg16
I200
sg17
g13
sg18
g13
sg19
S'/Library/Fonts/Apple LiSung Light.ttf'
p321
sg21
g22
sbag7
(g8
g9
NtRp322
(dp323
g12
g13
sg14
S'Telugu Sangam MN'
p324
sg16
I400
sg17
g13
sg18
g13
sg19
S'/Library/Fonts/Telugu Sangam MN.ttf'
p325
sg21
g22
sbag7
(g8
g9
NtRp326
(dp327
g12
g13
sg14
S'Myanmar Sangam MN'
p328
sg16
I400
sg17
g13
sg18
g13
sg19
S'/Library/Fonts/Myanmar Sangam MN.ttf'
p329
sg21
g22
sbag7
(g8
g9
NtRp330
(dp331
g12
g13
sg14
S'STIXSizeThreeSym'
p332
sg16
I700
sg17
g13
sg18
g13
sg19
S'/Library/Fonts/STIXSizThreeSymBol.otf'
p333
sg21
g22
sbag7
(g8
g9
NtRp334
(dp335
g12
g13
sg14
S'Courier New'
p336
sg16
I400
sg17
g13
sg18
g13
sg19
S'/Library/Fonts/Courier New.ttf'
p337
sg21
g22
sbag7
(g8
g9
NtRp338
(dp339
g12
g29
sg14
S'Arial Narrow'
p340
sg16
I700
sg17
g268
sg18
g13
sg19
S'/Library/Fonts/Arial Narrow Bold Italic.ttf'
p341
sg21
g22
sbag7
(g8
g9
NtRp342
(dp343
g12
g13
sg14
S'Serto Jerusalem'
p344
sg16
I400
sg17
g13
sg18
g13
sg19
S'/usr/X11/lib/X11/fonts/OTF/SyrCOMJerusalem.otf'
p345
sg21
g22
sbag7
(g8
g9
NtRp346
(dp347
g12
g13
sg14
S'Zapfino'
p348
sg16
I400
sg17
g13
sg18
g13
sg19
S'/Library/Fonts/Zapfino.ttf'
p349
sg21
g22
sbag7
(g8
g9
NtRp350
(dp351
g12
g13
sg14
S'Arial Narrow'
p352
sg16
I700
sg17
g268
sg18
g13
sg19
S'/Library/Fonts/Arial Narrow Bold.ttf'
p353
sg21
g22
sbag7
(g8
g9
NtRp354
(dp355
g12
g29
sg14
S'Times New Roman'
p356
sg16
I500
sg17
g13
sg18
g13
sg19
S'/Library/Fonts/Times New Roman Italic.ttf'
p357
sg21
g22
sbag7
(g8
g9
NtRp358
(dp359
g12
g13
sg14
S'Krungthep'
p360
sg16
I400
sg17
g13
sg18
g13
sg19
S'/Library/Fonts/Krungthep.ttf'
p361
sg21
g22
sbag7
(g8
g9
NtRp362
(dp363
g12
g13
sg14
S'Hiragino Mincho Pro'
p364
sg16
I400
sg17
g13
sg18
g13
sg19
S'/Library/Fonts/\xe3\x83\x92\xe3\x83\xa9\xe3\x82\xad\xe3\x82\x99\xe3\x83\x8e\xe6\x98\x8e\xe6\x9c\x9d Pro W3.otf'
p365
sg21
g22
sbag7
(g8
g9
NtRp366
(dp367
g12
g13
sg14
S'Serto Batnan'
p368
sg16
I400
sg17
g13
sg18
g13
sg19
S'/usr/X11R6/lib/X11/fonts/OTF/SyrCOMBatnan.otf'
p369
sg21
g22
sbag7
(g8
g9
NtRp370
(dp371
g12
g13
sg14
S'Georgia'
p372
sg16
I400
sg17
g13
sg18
g13
sg19
S'/Library/Fonts/Georgia.ttf'
p373
sg21
g22
sbag7
(g8
g9
NtRp374
(dp375
g12
g13
sg14
S'Estrangelo TurAbdin'
p376
sg16
I400
sg17
g13
sg18
g13
sg19
S'/usr/X11/share/fonts/OTF/SyrCOMTurAbdin.otf'
p377
sg21
g22
sbag7
(g8
g9
NtRp378
(dp379
g12
g13
sg14
S'STIXIntegralsSm'
p380
sg16
I700
sg17
g13
sg18
g13
sg19
S'/Library/Fonts/STIXIntSmBol.otf'
p381
sg21
g22
sbag7
(g8
g9
NtRp382
(dp383
g12
g13
sg14
S'Trebuchet MS'
p384
sg16
I700
sg17
g13
sg18
g13
sg19
S'/Library/Fonts/Trebuchet MS Bold.ttf'
p385
sg21
g22
sbag7
(g8
g9
NtRp386
(dp387
g12
g13
sg14
S'Luxi Serif'
p388
sg16
I700
sg17
g13
sg18
g13
sg19
S'/usr/X11/share/fonts/TTF/luxirb.ttf'
p389
sg21
g22
sbag7
(g8
g9
NtRp390
(dp391
g12
g13
sg14
S'Sinhala Sangam MN'
p392
sg16
I400
sg17
g13
sg18
g13
sg19
S'/Library/Fonts/Sinhala Sangam MN.ttf'
p393
sg21
g22
sbag7
(g8
g9
NtRp394
(dp395
g12
g13
sg14
S'Oriya Sangam MN'
p396
sg16
I400
sg17
g13
sg18
g13
sg19
S'/Library/Fonts/Oriya Sangam MN.ttf'
p397
sg21
g22
sbag7
(g8
g9
NtRp398
(dp399
g12
g50
sg14
S'Luxi Serif'
p400
sg16
I700
sg17
g13
sg18
g13
sg19
S'/usr/X11R6/lib/X11/fonts/TTF/luxirbi.ttf'
p401
sg21
g22
sbag7
(g8
g9
NtRp402
(dp403
g12
g13
sg14
S'Apple Symbols'
p404
sg16
I400
sg17
g13
sg18
g13
sg19
S'/System/Library/Fonts/Apple Symbols.ttf'
p405
sg21
g22
sbag7
(g8
g9
NtRp406
(dp407
g12
g13
sg14
S'Luxi Sans'
p408
sg16
I700
sg17
g13
sg18
g13
sg19
S'/usr/X11/share/fonts/TTF/luxisb.ttf'
p409
sg21
g22
sbag7
(g8
g9
NtRp410
(dp411
g12
g29
sg14
S'Times New Roman'
p412
sg16
I700
sg17
g13
sg18
g13
sg19
S'/Library/Fonts/Times New Roman Bold Italic.ttf'
p413
sg21
g22
sbag7
(g8
g9
NtRp414
(dp415
g12
g13
sg14
S'Webdings'
p416
sg16
I400
sg17
g13
sg18
g13
sg19
S'/Library/Fonts/Webdings.ttf'
p417
sg21
g22
sbag7
(g8
g9
NtRp418
(dp419
g12
g29
sg14
S'Arial Narrow'
p420
sg16
I400
sg17
g268
sg18
g13
sg19
S'/Library/Fonts/Arial Narrow Italic.ttf'
p421
sg21
g22
sbag7
(g8
g9
NtRp422
(dp423
g12
g13
sg14
S'East Syriac Ctesiphon'
p424
sg16
I400
sg17
g13
sg18
g13
sg19
S'/usr/X11/lib/X11/fonts/OTF/SyrCOMCtesiphon.otf'
p425
sg21
g22
sbag7
(g8
g9
NtRp426
(dp427
g12
g13
sg14
S'Serto Urhoy'
p428
sg16
I700
sg17
g13
sg18
g13
sg19
S'/usr/X11R6/lib/X11/fonts/OTF/SyrCOMUrhoyBold.otf'
p429
sg21
g22
sbag7
(g8
g9
NtRp430
(dp431
g12
g13
sg14
S'Hiragino Kaku Gothic ProN'
p432
sg16
I400
sg17
g13
sg18
g13
sg19
S'/System/Library/Fonts/\xe3\x83\x92\xe3\x83\xa9\xe3\x82\xad\xe3\x82\x99\xe3\x83\x8e\xe8\xa7\x92\xe3\x82\xb3\xe3\x82\x99 ProN W3.otf'
p433
sg21
g22
sbag7
(g8
g9
NtRp434
(dp435
g12
g13
sg14
S'PilGi'
p436
sg16
I400
sg17
g13
sg18
g13
sg19
S'/Library/Fonts/Pilgiche.ttf'
p437
sg21
g22
sbag7
(g8
g9
NtRp438
(dp439
g12
g13
sg14
S'Estrangelo Midyat'
p440
sg16
I400
sg17
g13
sg18
g13
sg19
S'/usr/X11/lib/X11/fonts/OTF/SyrCOMMidyat.otf'
p441
sg21
g22
sbag7
(g8
g9
NtRp442
(dp443
g12
g13
sg14
S'Apple Braille'
p444
sg16
I400
sg17
g13
sg18
g13
sg19
S'/System/Library/Fonts/Apple Braille Outline 8 Dot.ttf'
p445
sg21
g22
sbag7
(g8
g9
NtRp446
(dp447
g12
g13
sg14
S'Nadeem'
p448
sg16
I400
sg17
g13
sg18
g13
sg19
S'/Library/Fonts/Nadeem.ttf'
p449
sg21
g22
sbag7
(g8
g9
NtRp450
(dp451
g12
g13
sg14
S'Plantagenet Cherokee'
p452
sg16
I400
sg17
g13
sg18
g13
sg19
S'/Library/Fonts/PlantagenetCherokee.ttf'
p453
sg21
g22
sbag7
(g8
g9
NtRp454
(dp455
g12
g13
sg14
S'Luxi Serif'
p456
sg16
I400
sg17
g13
sg18
g13
sg19
S'/usr/X11R6/lib/X11/fonts/TTF/luxirr.ttf'
p457
sg21
g22
sbag7
(g8
g9
NtRp458
(dp459
g12
g13
sg14
S'Times New Roman'
p460
sg16
I700
sg17
g13
sg18
g13
sg19
S'/Library/Fonts/Times New Roman Bold.ttf'
p461
sg21
g22
sbag7
(g8
g9
NtRp462
(dp463
g12
g13
sg14
S'BiauKai'
p464
sg16
I400
sg17
g13
sg18
g13
sg19
S'/Library/Fonts/BiauKai.ttf'
p465
sg21
g22
sbag7
(g8
g9
NtRp466
(dp467
g12
g29
sg14
S'Arial'
p468
sg16
I700
sg17
g13
sg18
g13
sg19
S'/Library/Fonts/Arial Bold Italic.ttf'
p469
sg21
g22
sbag7
(g8
g9
NtRp470
(dp471
g12
g13
sg14
S'Goha-Tibeb Zemen'
p472
sg16
I400
sg17
g13
sg18
g13
sg19
S'/usr/X11/lib/X11/fonts/TTF/GohaTibebZemen.ttf'
p473
sg21
g22
sbag7
(g8
g9
NtRp474
(dp475
g12
g13
sg14
S'STIXVariants'
p476
sg16
I400
sg17
g13
sg18
g13
sg19
S'/Library/Fonts/STIXVar.otf'
p477
sg21
g22
sbag7
(g8
g9
NtRp478
(dp479
g12
g13
sg14
S'STIXVariants'
p480
sg16
I700
sg17
g13
sg18
g13
sg19
S'/Library/Fonts/STIXVarBol.otf'
p481
sg21
g22
sbag7
(g8
g9
NtRp482
(dp483
g12
g13
sg14
S'Serto Malankara'
p484
sg16
I400
sg17
g13
sg18
g13
sg19
S'/usr/X11/lib/X11/fonts/OTF/SyrCOMMalankara.otf'
p485
sg21
g22
sbag7
(g8
g9
NtRp486
(dp487
g12
g13
sg14
S'Hiragino Sans GB'
p488
sg16
I400
sg17
g13
sg18
g13
sg19
S'/Library/Fonts/Hiragino Sans GB W3.otf'
p489
sg21
g22
sbag7
(g8
g9
NtRp490
(dp491
g12
g13
sg14
S'Hiragino Kaku Gothic ProN'
p492
sg16
I700
sg17
g13
sg18
g13
sg19
S'/System/Library/Fonts/\xe3\x83\x92\xe3\x83\xa9\xe3\x82\xad\xe3\x82\x99\xe3\x83\x8e\xe8\xa7\x92\xe3\x82\xb3\xe3\x82\x99 ProN W6.otf'
p493
sg21
g22
sbag7
(g8
g9
NtRp494
(dp495
g12
g13
sg14
S'Hiragino Kaku Gothic StdN'
p496
sg16
I700
sg17
g13
sg18
g13
sg19
S'/Library/Fonts/\xe3\x83\x92\xe3\x83\xa9\xe3\x82\xad\xe3\x82\x99\xe3\x83\x8e\xe8\xa7\x92\xe3\x82\xb3\xe3\x82\x99 StdN W8.otf'
p497
sg21
g22
sbag7
(g8
g9
NtRp498
(dp499
g12
g13
sg14
S'Mshtakan'
p500
sg16
I700
sg17
g13
sg18
g13
sg19
S'/Library/Fonts/MshtakanBold.ttf'
p501
sg21
g22
sbag7
(g8
g9
NtRp502
(dp503
g12
g13
sg14
S'AppleGothic'
p504
sg16
I400
sg17
g13
sg18
g13
sg19
S'/System/Library/Fonts/AppleGothic.ttf'
p505
sg21
g22
sbag7
(g8
g9
NtRp506
(dp507
g12
g13
sg14
S'STIXIntegralsUp'
p508
sg16
I700
sg17
g13
sg18
g13
sg19
S'/Library/Fonts/STIXIntUpBol.otf'
p509
sg21
g22
sbag7
(g8
g9
NtRp510
(dp511
g12
g13
sg14
S'Al Bayan'
p512
sg16
I400
sg17
g13
sg18
g13
sg19
S'/Library/Fonts/AlBayan.ttf'
p513
sg21
g22
sbag7
(g8
g9
NtRp514
(dp515
g12
g13
sg14
S'STIXSizeFiveSym'
p516
sg16
I400
sg17
g13
sg18
g13
sg19
S'/Library/Fonts/STIXSizFiveSymReg.otf'
p517
sg21
g22
sbag7
(g8
g9
NtRp518
(dp519
g12
g13
sg14
S'Corsiva Hebrew'
p520
sg16
I700
sg17
g13
sg18
g13
sg19
S'/Library/Fonts/CorsivaBold.ttf'
p521
sg21
g22
sbag7
(g8
g9
NtRp522
(dp523
g12
g13
sg14
S'East Syriac Adiabene'
p524
sg16
I400
sg17
g13
sg18
g13
sg19
S'/usr/X11/lib/X11/fonts/OTF/SyrCOMAdiabene.otf'
p525
sg21
g22
sbag7
(g8
g9
NtRp526
(dp527
g12
g29
sg14
S'Serto Jerusalem'
p528
sg16
I400
sg17
g13
sg18
g13
sg19
S'/usr/X11/share/fonts/OTF/SyrCOMJerusalemItalic.otf'
p529
sg21
g22
sbag7
(g8
g9
NtRp530
(dp531
g12
g13
sg14
S'Gurmukhi MT'
p532
sg16
I400
sg17
g13
sg18
g13
sg19
S'/Library/Fonts/Gurmukhi.ttf'
p533
sg21
g22
sbag7
(g8
g9
NtRp534
(dp535
g12
g13
sg14
S'Estrangelo Quenneshrin'
p536
sg16
I400
sg17
g13
sg18
g13
sg19
S'/usr/X11/lib/X11/fonts/OTF/SyrCOMQenNeshrin.otf'
p537
sg21
g22
sbag7
(g8
g9
NtRp538
(dp539
g12
g13
sg14
S'STKaiti'
p540
sg16
I400
sg17
g13
sg18
g13
sg19
S'/Library/Fonts/\xe5\x8d\x8e\xe6\x96\x87\xe6\xa5\xb7\xe4\xbd\x93.ttf'
p541
sg21
g22
sbag7
(g8
g9
NtRp542
(dp543
g12
g13
sg14
S'Apple Color Emoji'
p544
sg16
I400
sg17
g13
sg18
g13
sg19
S'/System/Library/Fonts/Apple Color Emoji.ttf'
p545
sg21
g22
sbag7
(g8
g9
NtRp546
(dp547
g12
g13
sg14
S'Skia'
p548
sg16
I400
sg17
g13
sg18
g13
sg19
S'/Library/Fonts/Skia.ttf'
p549
sg21
g22
sbag7
(g8
g9
NtRp550
(dp551
g12
g13
sg14
S'Estrangelo Edessa'
p552
sg16
I400
sg17
g13
sg18
g13
sg19
S'/usr/X11R6/lib/X11/fonts/OTF/SyrCOMEdessa.otf'
p553
sg21
g22
sbag7
(g8
g9
NtRp554
(dp555
g12
g13
sg14
S'STFangsong'
p556
sg16
I400
sg17
g13
sg18
g13
sg19
S'/Library/Fonts/\xe5\x8d\x8e\xe6\x96\x87\xe4\xbb\xbf\xe5\xae\x8b.ttf'
p557
sg21
g22
sbag7
(g8
g9
NtRp558
(dp559
g12
g29
sg14
S'Arial'
p560
sg16
I400
sg17
g13
sg18
g13
sg19
S'/Library/Fonts/Arial Italic.ttf'
p561
sg21
g22
sbag7
(g8
g9
NtRp562
(dp563
g12
g13
sg14
S'Hiragino Kaku Gothic Std'
p564
sg16
I700
sg17
g13
sg18
g13
sg19
S'/Library/Fonts/\xe3\x83\x92\xe3\x83\xa9\xe3\x82\xad\xe3\x82\x99\xe3\x83\x8e\xe8\xa7\x92\xe3\x82\xb3\xe3\x82\x99 Std W8.otf'
p565
sg21
g22
sbag7
(g8
g9
NtRp566
(dp567
g12
g13
sg14
S'LiSong Pro'
p568
sg16
I400
sg17
g13
sg18
g13
sg19
S'/Library/Fonts/\xe5\x84\xb7\xe5\xae\x8b Pro.ttf'
p569
sg21
g22
sbag7
(g8
g9
NtRp570
(dp571
g12
g13
sg14
S'Hiragino Maru Gothic Pro'
p572
sg16
I400
sg17
g13
sg18
g13
sg19
S'/Library/Fonts/\xe3\x83\x92\xe3\x83\xa9\xe3\x82\xad\xe3\x82\x99\xe3\x83\x8e\xe4\xb8\xb8\xe3\x82\xb3\xe3\x82\x99 Pro W4.otf'
p573
sg21
g22
sbag7
(g8
g9
NtRp574
(dp575
g12
g13
sg14
S'STIXGeneral'
p576
sg16
I700
sg17
g13
sg18
g13
sg19
S'/Library/Fonts/STIXGeneralBol.otf'
p577
sg21
g22
sbag7
(g8
g9
NtRp578
(dp579
g12
g29
sg14
S'STIXNonUnicode'
p580
sg16
I700
sg17
g13
sg18
g13
sg19
S'/Library/Fonts/STIXNonUniBolIta.otf'
p581
sg21
g22
sbag7
(g8
g9
NtRp582
(dp583
g12
g13
sg14
S'Apple Braille'
p584
sg16
I400
sg17
g13
sg18
g13
sg19
S'/System/Library/Fonts/Apple Braille Pinpoint 8 Dot.ttf'
p585
sg21
g22
sbag7
(g8
g9
NtRp586
(dp587
g12
g29
sg14
S'Georgia'
p588
sg16
I400
sg17
g13
sg18
g13
sg19
S'/Library/Fonts/Georgia Italic.ttf'
p589
sg21
g22
sbag7
(g8
g9
NtRp590
(dp591
g12
g13
sg14
S'Apple Braille'
p592
sg16
I400
sg17
g13
sg18
g13
sg19
S'/System/Library/Fonts/Apple Braille Outline 6 Dot.ttf'
p593
sg21
g22
sbag7
(g8
g9
NtRp594
(dp595
g12
g13
sg14
S'Chalkduster'
p596
sg16
I400
sg17
g13
sg18
g13
sg19
S'/Library/Fonts/Chalkduster.ttf'
p597
sg21
g22
sbag7
(g8
g9
NtRp598
(dp599
g12
g29
sg14
S'Courier New'
p600
sg16
I700
sg17
g13
sg18
g13
sg19
S'/Library/Fonts/Courier New Bold Italic.ttf'
p601
sg21
g22
sbag7
(g8
g9
NtRp602
(dp603
g12
g13
sg14
S'Raanana'
p604
sg16
I700
sg17
g13
sg18
g13
sg19
S'/Library/Fonts/RaananaBold.ttf'
p605
sg21
g22
sbag7
(g8
g9
NtRp606
(dp607
g12
g29
sg14
S'New Peninim MT'
p608
sg16
I400
sg17
g13
sg18
g13
sg19
S'/Library/Fonts/NewPeninimMTInclined.ttf'
p609
sg21
g22
sbag7
(g8
g9
NtRp610
(dp611
g12
g13
sg14
S'Arial Rounded MT Bold'
p612
sg16
I700
sg17
g13
sg18
g13
sg19
S'/Library/Fonts/Arial Rounded Bold.ttf'
p613
sg21
g22
sbag7
(g8
g9
NtRp614
(dp615
g12
g13
sg14
S'Devanagari MT'
p616
sg16
I700
sg17
g13
sg18
g13
sg19
S'/Library/Fonts/DevanagariMTBold.ttf'
p617
sg21
g22
sbag7
(g8
g9
NtRp618
(dp619
g12
g13
sg14
S'Thonburi'
p620
sg16
I700
sg17
g13
sg18
g13
sg19
S'/System/Library/Fonts/ThonburiBold.ttf'
p621
sg21
g22
sbag7
(g8
g9
NtRp622
(dp623
g12
g13
sg14
S'Serto Urhoy'
p624
sg16
I400
sg17
g13
sg18
g13
sg19
S'/usr/X11/share/fonts/OTF/SyrCOMUrhoy.otf'
p625
sg21
g22
sbag7
(g8
g9
NtRp626
(dp627
g12
g13
sg14
S'PCMyungjo'
p628
sg16
I400
sg17
g13
sg18
g13
sg19
S'/Library/Fonts/PCmyoungjo.ttf'
p629
sg21
g22
sbag7
(g8
g9
NtRp630
(dp631
g12
g13
sg14
S'LastResort'
p632
sg16
I400
sg17
g13
sg18
g13
sg19
S'/System/Library/Fonts/LastResort.ttf'
p633
sg21
g22
sbag7
(g8
g9
NtRp634
(dp635
g12
g29
sg14
S'Verdana'
p636
sg16
I700
sg17
g13
sg18
g13
sg19
S'/Library/Fonts/Verdana Bold Italic.ttf'
p637
sg21
g22
sbag7
(g8
g9
NtRp638
(dp639
g12
g13
sg14
S'Luxi Sans'
p640
sg16
I400
sg17
g13
sg18
g13
sg19
S'/usr/X11/share/fonts/TTF/luxisr.ttf'
p641
sg21
g22
sbag7
(g8
g9
NtRp642
(dp643
g12
g13
sg14
S'Hiragino Sans GB'
p644
sg16
I700
sg17
g13
sg18
g13
sg19
S'/Library/Fonts/Hiragino Sans GB W6.otf'
p645
sg21
g22
sbag7
(g8
g9
NtRp646
(dp647
g12
g13
sg14
S'Kailasa'
p648
sg16
I400
sg17
g13
sg18
g13
sg19
S'/Library/Fonts/Kailasa.ttf'
p649
sg21
g22
sbag7
(g8
g9
NtRp650
(dp651
g12
g13
sg14
S'STIXIntegralsSm'
p652
sg16
I400
sg17
g13
sg18
g13
sg19
S'/Library/Fonts/STIXIntSmReg.otf'
p653
sg21
g22
sbag7
(g8
g9
NtRp654
(dp655
g12
g13
sg14
S'Kokonor'
p656
sg16
I400
sg17
g13
sg18
g13
sg19
S'/Library/Fonts/Kokonor.ttf'
p657
sg21
g22
sbag7
(g8
g9
NtRp658
(dp659
g12
g13
sg14
S'Geeza Pro'
p660
sg16
I700
sg17
g13
sg18
g13
sg19
S'/System/Library/Fonts/Geeza Pro Bold.ttf'
p661
sg21
g22
sbag7
(g8
g9
NtRp662
(dp663
g12
g13
sg14
S'Serto Jerusalem'
p664
sg16
I700
sg17
g13
sg18
g13
sg19
S'/usr/X11/share/fonts/OTF/SyrCOMJerusalemBold.otf'
p665
sg21
g22
sbag7
(g8
g9
NtRp666
(dp667
g12
g29
sg14
S'Verdana'
p668
sg16
I400
sg17
g13
sg18
g13
sg19
S'/Library/Fonts/Verdana Italic.ttf'
p669
sg21
g22
sbag7
(g8
g9
NtRp670
(dp671
g12
g13
sg14
S'Devanagari MT'
p672
sg16
I400
sg17
g13
sg18
g13
sg19
S'/Library/Fonts/DevanagariMT.ttf'
p673
sg21
g22
sbag7
(g8
g9
NtRp674
(dp675
g12
g13
sg14
S'Apple Braille'
p676
sg16
I400
sg17
g13
sg18
g13
sg19
S'/System/Library/Fonts/Apple Braille.ttf'
p677
sg21
g22
sbag7
(g8
g9
NtRp678
(dp679
g12
g13
sg14
S'Hiragino Mincho Pro'
p680
sg16
I700
sg17
g13
sg18
g13
sg19
S'/Library/Fonts/\xe3\x83\x92\xe3\x83\xa9\xe3\x82\xad\xe3\x82\x99\xe3\x83\x8e\xe6\x98\x8e\xe6\x9c\x9d Pro W6.otf'
p681
sg21
g22
sbag7
(g8
g9
NtRp682
(dp683
g12
g13
sg14
S'InaiMathi'
p684
sg16
I400
sg17
g13
sg18
g13
sg19
S'/Library/Fonts/InaiMathi.ttf'
p685
sg21
g22
sbag7
(g8
g9
NtRp686
(dp687
g12
g13
sg14
S'STIXNonUnicode'
p688
sg16
I400
sg17
g13
sg18
g13
sg19
S'/Library/Fonts/STIXNonUni.otf'
p689
sg21
g22
sbag7
(g8
g9
NtRp690
(dp691
g12
g13
sg14
S'Luxi Mono'
p692
sg16
I700
sg17
g13
sg18
g13
sg19
S'/usr/X11/share/fonts/TTF/luximb.ttf'
p693
sg21
g22
sbag7
(g8
g9
NtRp694
(dp695
g12
g13
sg14
S'STIXIntegralsD'
p696
sg16
I400
sg17
g13
sg18
g13
sg19
S'/Library/Fonts/STIXIntDReg.otf'
p697
sg21
g22
sbag7
(g8
g9
NtRp698
(dp699
g12
g29
sg14
S'STIXNonUnicode'
p700
sg16
I400
sg17
g13
sg18
g13
sg19
S'/Library/Fonts/STIXNonUniIta.otf'
p701
sg21
g22
sbag7
(g8
g9
NtRp702
(dp703
g12
g13
sg14
S'Baghdad'
p704
sg16
I400
sg17
g13
sg18
g13
sg19
S'/Library/Fonts/Baghdad.ttf'
p705
sg21
g22
sbag7
(g8
g9
NtRp706
(dp707
g12
g13
sg14
S'Kannada Sangam MN'
p708
sg16
I400
sg17
g13
sg18
g13
sg19
S'/Library/Fonts/Kannada Sangam MN.ttf'
p709
sg21
g22
sbag7
(g8
g9
NtRp710
(dp711
g12
g13
sg14
S'Comic Sans MS'
p712
sg16
I700
sg17
g13
sg18
g13
sg19
S'/Library/Fonts/Comic Sans MS Bold.ttf'
p713
sg21
g22
sbag7
(g8
g9
NtRp714
(dp715
g12
g13
sg14
S'Trebuchet MS'
p716
sg16
I400
sg17
g13
sg18
g13
sg19
S'/Library/Fonts/Trebuchet MS.ttf'
p717
sg21
g22
sbag7
(g8
g9
NtRp718
(dp719
g12
g13
sg14
S'Courier New'
p720
sg16
I700
sg17
g13
sg18
g13
sg19
S'/Library/Fonts/Courier New Bold.ttf'
p721
sg21
g22
sbag7
(g8
g9
NtRp722
(dp723
g12
g13
sg14
S'Big Caslon'
p724
sg16
I500
sg17
g13
sg18
g13
sg19
S'/Library/Fonts/BigCaslon.ttf'
p725
sg21
g22
sbag7
(g8
g9
NtRp726
(dp727
g12
g13
sg14
S'Ayuthaya'
p728
sg16
I400
sg17
g13
sg18
g13
sg19
S'/Library/Fonts/Ayuthaya.ttf'
p729
sg21
g22
sbag7
(g8
g9
NtRp730
(dp731
g12
g13
sg14
S'Herculanum'
p732
sg16
I400
sg17
g13
sg18
g13
sg19
S'/Library/Fonts/Herculanum.ttf'
p733
sg21
g22
sbag7
(g8
g9
NtRp734
(dp735
g12
g13
sg14
S'DecoType Naskh'
p736
sg16
I400
sg17
g13
sg18
g13
sg19
S'/Library/Fonts/DecoTypeNaskh.ttf'
p737
sg21
g22
sbag7
(g8
g9
NtRp738
(dp739
g12
g13
sg14
S'Apple Braille'
p740
sg16
I400
sg17
g13
sg18
g13
sg19
S'/System/Library/Fonts/Apple Braille Pinpoint 6 Dot.ttf'
p741
sg21
g22
sbag7
(g8
g9
NtRp742
(dp743
g12
g13
sg14
S'Hiragino Kaku Gothic Pro'
p744
sg16
I700
sg17
g13
sg18
g13
sg19
S'/Library/Fonts/\xe3\x83\x92\xe3\x83\xa9\xe3\x82\xad\xe3\x82\x99\xe3\x83\x8e\xe8\xa7\x92\xe3\x82\xb3\xe3\x82\x99 Pro W6.otf'
p745
sg21
g22
sbag7
(g8
g9
NtRp746
(dp747
g12
g13
sg14
S'Symbol'
p748
sg16
I400
sg17
g13
sg18
g13
sg19
S'/System/Library/Fonts/Symbol.ttf'
p749
sg21
g22
sbag7
(g8
g9
NtRp750
(dp751
g12
g29
sg14
S'Trebuchet MS'
p752
sg16
I700
sg17
g13
sg18
g13
sg19
S'/Library/Fonts/Trebuchet MS Bold Italic.ttf'
p753
sg21
g22
sbag7
(g8
g9
NtRp754
(dp755
g12
g13
sg14
S'Al Bayan'
p756
sg16
I700
sg17
g13
sg18
g13
sg19
S'/Library/Fonts/AlBayanBold.ttf'
p757
sg21
g22
sbag7
(g8
g9
NtRp758
(dp759
g12
g13
sg14
S'Wingdings 2'
p760
sg16
I400
sg17
g13
sg18
g13
sg19
S'/Library/Fonts/Wingdings 2.ttf'
p761
sg21
g22
sbag7
(g8
g9
NtRp762
(dp763
g12
g13
sg14
S'HeadLineA'
p764
sg16
I400
sg17
g13
sg18
g13
sg19
S'/Library/Fonts/HeadlineA.ttf'
p765
sg21
g22
sbag7
(g8
g9
NtRp766
(dp767
g12
g13
sg14
S'Tahoma'
p768
sg16
I400
sg17
g13
sg18
g13
sg19
S'/Library/Fonts/Tahoma.ttf'
p769
sg21
g22
sbag7
(g8
g9
NtRp770
(dp771
g12
g29
sg14
S'Brush Script MT'
p772
sg16
I400
sg17
g13
sg18
g13
sg19
S'/Library/Fonts/Brush Script.ttf'
p773
sg21
g22
sbag7
(g8
g9
NtRp774
(dp775
g12
g13
sg14
S'Arial Hebrew'
p776
sg16
I700
sg17
g13
sg18
g13
sg19
S'/Library/Fonts/ArialHBBold.ttf'
p777
sg21
g22
sbag7
(g8
g9
NtRp778
(dp779
g12
g13
sg14
S'.Keyboard'
p780
sg16
I400
sg17
g13
sg18
g13
sg19
S'/System/Library/Fonts/Keyboard.ttf'
p781
sg21
g22
sbag7
(g8
g9
NtRp782
(dp783
g12
g13
sg14
S'Hiragino Maru Gothic ProN'
p784
sg16
I400
sg17
g13
sg18
g13
sg19
S'/Library/Fonts/\xe3\x83\x92\xe3\x83\xa9\xe3\x82\xad\xe3\x82\x99\xe3\x83\x8e\xe4\xb8\xb8\xe3\x82\xb3\xe3\x82\x99 ProN W4.otf'
p785
sg21
g22
sbag7
(g8
g9
NtRp786
(dp787
g12
g13
sg14
S'STIXSizeOneSym'
p788
sg16
I400
sg17
g13
sg18
g13
sg19
S'/Library/Fonts/STIXSizOneSymReg.otf'
p789
sg21
g22
sbag7
(g8
g9
NtRp790
(dp791
g12
g13
sg14
S'STIXIntegralsUpSm'
p792
sg16
I400
sg17
g13
sg18
g13
sg19
S'/Library/Fonts/STIXIntUpSmReg.otf'
p793
sg21
g22
sbag7
(g8
g9
NtRp794
(dp795
g12
g13
sg14
S'Andale Mono'
p796
sg16
I400
sg17
g13
sg18
g13
sg19
S'/Library/Fonts/Andale Mono.ttf'
p797
sg21
g22
sbag7
(g8
g9
NtRp798
(dp799
g12
g13
sg14
S'Geeza Pro'
p800
sg16
I400
sg17
g13
sg18
g13
sg19
S'/System/Library/Fonts/Geeza Pro.ttf'
p801
sg21
g22
sbag7
(g8
g9
NtRp802
(dp803
g12
g13
sg14
S'Khmer Sangam MN'
p804
sg16
I400
sg17
g13
sg18
g13
sg19
S'/Library/Fonts/Khmer Sangam MN.ttf'
p805
sg21
g22
sbag7
(g8
g9
NtRp806
(dp807
g12
g13
sg14
S'Microsoft Sans Serif'
p808
sg16
I400
sg17
g13
sg18
g13
sg19
S'/Library/Fonts/Microsoft Sans Serif.ttf'
p809
sg21
g22
sbag7
(g8
g9
NtRp810
(dp811
g12
g13
sg14
S'STIXIntegralsUpD'
p812
sg16
I700
sg17
g13
sg18
g13
sg19
S'/Library/Fonts/STIXIntUpDBol.otf'
p813
sg21
g22
sbag7
(g8
g9
NtRp814
(dp815
g12
g13
sg14
S'Kai'
p816
sg16
I400
sg17
g13
sg18
g13
sg19
S'/Library/Fonts/Kai.ttf'
p817
sg21
g22
sbag7
(g8
g9
NtRp818
(dp819
g12
g13
sg14
S'STIXGeneral'
p820
sg16
I400
sg17
g13
sg18
g13
sg19
S'/Library/Fonts/STIXGeneral.otf'
p821
sg21
g22
sbag7
(g8
g9
NtRp822
(dp823
g12
g29
sg14
S'Courier New'
p824
sg16
I400
sg17
g13
sg18
g13
sg19
S'/Library/Fonts/Courier New Italic.ttf'
p825
sg21
g22
sbag7
(g8
g9
NtRp826
(dp827
g12
g13
sg14
S'Arial Black'
p828
sg16
I900
sg17
g13
sg18
g13
sg19
S'/Library/Fonts/Arial Black.ttf'
p829
sg21
g22
sbag7
(g8
g9
NtRp830
(dp831
g12
g13
sg14
S'Serto Mardin'
p832
sg16
I400
sg17
g13
sg18
g13
sg19
S'/usr/X11/lib/X11/fonts/OTF/SyrCOMMardin.otf'
p833
sg21
g22
sbag7
(g8
g9
NtRp834
(dp835
g12
g29
sg14
S'STIXGeneral'
p836
sg16
I400
sg17
g13
sg18
g13
sg19
S'/Library/Fonts/STIXGeneralItalic.otf'
p837
sg21
g22
sbag7
(g8
g9
NtRp838
(dp839
g12
g13
sg14
S'Silom'
p840
sg16
I400
sg17
g13
sg18
g13
sg19
S'/Library/Fonts/Silom.ttf'
p841
sg21
g22
sbag7
(g8
g9
NtRp842
(dp843
g12
g50
sg14
S'Mshtakan'
p844
sg16
I700
sg17
g13
sg18
g13
sg19
S'/Library/Fonts/MshtakanBoldOblique.ttf'
p845
sg21
g22
sbag7
(g8
g9
NtRp846
(dp847
g12
g13
sg14
S'STSong'
p848
sg16
I400
sg17
g13
sg18
g13
sg19
S'/Library/Fonts/\xe5\x8d\x8e\xe6\x96\x87\xe5\xae\x8b\xe4\xbd\x93.ttf'
p849
sg21
g22
sbag7
(g8
g9
NtRp850
(dp851
g12
g13
sg14
S'Malayalam Sangam MN'
p852
sg16
I400
sg17
g13
sg18
g13
sg19
S'/Library/Fonts/Malayalam Sangam MN.ttf'
p853
sg21
g22
sbag7
(g8
g9
NtRp854
(dp855
g12
g13
sg14
S'Gujarati Sangam MN'
p856
sg16
I400
sg17
g13
sg18
g13
sg19
S'/Library/Fonts/Gujarati Sangam MN.ttf'
p857
sg21
g22
sbag7
(g8
g9
NtRp858
(dp859
g12
g13
sg14
S'STHeiti'
p860
sg16
I400
sg17
g13
sg18
g13
sg19
S'/Library/Fonts/\xe5\x8d\x8e\xe6\x96\x87\xe7\xbb\x86\xe9\xbb\x91.ttf'
p861
sg21
g22
sbag7
(g8
g9
NtRp862
(dp863
g12
g13
sg14
S'STIXSizeFourSym'
p864
sg16
I400
sg17
g13
sg18
g13
sg19
S'/Library/Fonts/STIXSizFourSymReg.otf'
p865
sg21
g22
sbag7
(g8
g9
NtRp866
(dp867
g12
g13
sg14
S'STHeiti'
p868
sg16
I400
sg17
g13
sg18
g13
sg19
S'/Library/Fonts/\xe5\x8d\x8e\xe6\x96\x87\xe9\xbb\x91\xe4\xbd\x93.ttf'
p869
sg21
g22
sbag7
(g8
g9
NtRp870
(dp871
g12
g13
sg14
S'Apple Chancery'
p872
sg16
I400
sg17
g13
sg18
g13
sg19
S'/Library/Fonts/Apple Chancery.ttf'
p873
sg21
g22
sbag7
(g8
g9
NtRp874
(dp875
g12
g13
sg14
S'Thonburi'
p876
sg16
I400
sg17
g13
sg18
g13
sg19
S'/System/Library/Fonts/Thonburi.ttf'
p877
sg21
g22
sbag7
(g8
g9
NtRp878
(dp879
g12
g13
sg14
S'Wingdings 3'
p880
sg16
I400
sg17
g13
sg18
g13
sg19
S'/Library/Fonts/Wingdings 3.ttf'
p881
sg21
g22
sbag7
(g8
g9
NtRp882
(dp883
g12
g29
sg14
S'STIXGeneral'
p884
sg16
I700
sg17
g13
sg18
g13
sg19
S'/Library/Fonts/STIXGeneralBolIta.otf'
p885
sg21
g22
sbag7
(g8
g9
NtRp886
(dp887
g12
g13
sg14
S'Arial Hebrew'
p888
sg16
I400
sg17
g13
sg18
g13
sg19
S'/Library/Fonts/ArialHB.ttf'
p889
sg21
g22
sbag7
(g8
g9
NtRp890
(dp891
g12
g13
sg14
S'STIXIntegralsUpSm'
p892
sg16
I700
sg17
g13
sg18
g13
sg19
S'/Library/Fonts/STIXIntUpSmBol.otf'
p893
sg21
g22
sbag7
(g8
g9
NtRp894
(dp895
g12
g13
sg14
S'Lao Sangam MN'
p896
sg16
I400
sg17
g13
sg18
g13
sg19
S'/Library/Fonts/Lao Sangam MN.ttf'
p897
sg21
g22
sbag7
(g8
g9
NtRp898
(dp899
g12
g13
sg14
S'KufiStandardGK'
p900
sg16
I400
sg17
g13
sg18
g13
sg19
S'/Library/Fonts/KufiStandardGK.ttf'
p901
sg21
g22
sbag7
(g8
g9
NtRp902
(dp903
g12
g13
sg14
S'STIXSizeOneSym'
p904
sg16
I700
sg17
g13
sg18
g13
sg19
S'/Library/Fonts/STIXSizOneSymBol.otf'
p905
sg21
g22
sbag7
(g8
g9
NtRp906
(dp907
g12
g13
sg14
S'Comic Sans MS'
p908
sg16
I400
sg17
g13
sg18
g13
sg19
S'/Library/Fonts/Comic Sans MS.ttf'
p909
sg21
g22
sbag7
(g8
g9
NtRp910
(dp911
g12
g13
sg14
S'STIXSizeTwoSym'
p912
sg16
I400
sg17
g13
sg18
g13
sg19
S'/Library/Fonts/STIXSizTwoSymReg.otf'
p913
sg21
g22
sbag7
(g8
g9
NtRp914
(dp915
g12
g13
sg14
S'Hei'
p916
sg16
I400
sg17
g13
sg18
g13
sg19
S'/Library/Fonts/Hei.ttf'
p917
sg21
g22
sbag7
(g8
g9
NtRp918
(dp919
g12
g13
sg14
S'STIXSizeFourSym'
p920
sg16
I700
sg17
g13
sg18
g13
sg19
S'/Library/Fonts/STIXSizFourSymBol.otf'
p921
sg21
g22
sbag7
(g8
g9
NtRp922
(dp923
g12
g13
sg14
S'Apple LiGothic'
p924
sg16
I500
sg17
g13
sg18
g13
sg19
S'/Library/Fonts/Apple LiGothic Medium.ttf'
p925
sg21
g22
sbag7
(g8
g9
NtRp926
(dp927
g12
g13
sg14
S'New Peninim MT'
p928
sg16
I700
sg17
g13
sg18
g13
sg19
S'/Library/Fonts/NewPeninimMTBold.ttf'
p929
sg21
g22
sbag7
(g8
g9
NtRp930
(dp931
g12
g13
sg14
S'Arial'
p932
sg16
I700
sg17
g13
sg18
g13
sg19
S'/Library/Fonts/Arial Bold.ttf'
p933
sg21
g22
sbag7
(g8
g9
NtRp934
(dp935
g12
g13
sg14
S'Georgia'
p936
sg16
I700
sg17
g13
sg18
g13
sg19
S'/Library/Fonts/Georgia Bold.ttf'
p937
sg21
g22
sbag7
(g8
g9
NtRp938
(dp939
g12
g13
sg14
S'Hiragino Mincho ProN'
p940
sg16
I400
sg17
g13
sg18
g13
sg19
S'/System/Library/Fonts/\xe3\x83\x92\xe3\x83\xa9\xe3\x82\xad\xe3\x82\x99\xe3\x83\x8e\xe6\x98\x8e\xe6\x9c\x9d ProN W3.otf'
p941
sg21
g22
sbag7
(g8
g9
NtRp942
(dp943
g12
g13
sg14
S'Osaka'
p944
sg16
I400
sg17
g13
sg18
g13
sg19
S'/Library/Fonts/OsakaMono.ttf'
p945
sg21
g22
sbag7
(g8
g9
NtRp946
(dp947
g12
g13
sg14
S'STIXSizeTwoSym'
p948
sg16
I700
sg17
g13
sg18
g13
sg19
S'/Library/Fonts/STIXSizTwoSymBol.otf'
p949
sg21
g22
sbag7
(g8
g9
NtRp950
(dp951
g12
g13
sg14
S'Wingdings'
p952
sg16
I400
sg17
g13
sg18
g13
sg19
S'/Library/Fonts/Wingdings.ttf'
p953
sg21
g22
sbag7
(g8
g9
NtRp954
(dp955
g12
g13
sg14
S'Impact'
p956
sg16
I400
sg17
g13
sg18
g13
sg19
S'/Library/Fonts/Impact.ttf'
p957
sg21
g22
sbag7
(g8
g9
NtRp958
(dp959
g12
g13
sg14
S'Tahoma'
p960
sg16
I700
sg17
g13
sg18
g13
sg19
S'/Library/Fonts/Tahoma Bold.ttf'
p961
sg21
g22
sbag7
(g8
g9
NtRp962
(dp963
g12
g13
sg14
S'STIXNonUnicode'
p964
sg16
I700
sg17
g13
sg18
g13
sg19
S'/Library/Fonts/STIXNonUniBol.otf'
p965
sg21
g22
sbag7
(g8
g9
NtRp966
(dp967
g12
g29
sg14
S'Georgia'
p968
sg16
I700
sg17
g13
sg18
g13
sg19
S'/Library/Fonts/Georgia Bold Italic.ttf'
p969
sg21
g22
sbag7
(g8
g9
NtRp970
(dp971
g12
g13
sg14
S'STIXIntegralsUpD'
p972
sg16
I400
sg17
g13
sg18
g13
sg19
S'/Library/Fonts/STIXIntUpDReg.otf'
p973
sg21
g22
sbag7
(g8
g9
NtRp974
(dp975
g12
g13
sg14
S'Sathu'
p976
sg16
I400
sg17
g13
sg18
g13
sg19
S'/Library/Fonts/Sathu.ttf'
p977
sg21
g22
sbag7
(g8
g9
NtRp978
(dp979
g12
g13
sg14
S'Gujarati MT'
p980
sg16
I400
sg17
g13
sg18
g13
sg19
S'/Library/Fonts/GujaratiMT.ttf'
p981
sg21
g22
sbag7
(g8
g9
NtRp982
(dp983
g12
g13
sg14
S'Bangla Sangam MN'
p984
sg16
I400
sg17
g13
sg18
g13
sg19
S'/Library/Fonts/Bangla Sangam MN.ttf'
p985
sg21
g22
sbasS'defaultFamily'
p986
(dp987
S'afm'
p988
S'Helvetica'
p989
sS'ttf'
p990
S'Bitstream Vera Sans'
p991
ssS'ttffiles'
p992
(lp993
S'/Library/Frameworks/Python.framework/Versions/2.7/lib/python2.7/site-packages/matplotlib/mpl-data/fonts/ttf/VeraMoBd.ttf'
p994
aS'/Library/Frameworks/Python.framework/Versions/2.7/lib/python2.7/site-packages/matplotlib/mpl-data/fonts/ttf/cmmi10.ttf'
p995
aS'/Library/Frameworks/Python.framework/Versions/2.7/lib/python2.7/site-packages/matplotlib/mpl-data/fonts/ttf/STIXGeneralItalic.ttf'
p996
aS'/Library/Frameworks/Python.framework/Versions/2.7/lib/python2.7/site-packages/matplotlib/mpl-data/fonts/ttf/STIXSizFiveSymReg.ttf'
p997
aS'/Library/Frameworks/Python.framework/Versions/2.7/lib/python2.7/site-packages/matplotlib/mpl-data/fonts/ttf/STIXSizFourSymReg.ttf'
p998
aS'/Library/Frameworks/Python.framework/Versions/2.7/lib/python2.7/site-packages/matplotlib/mpl-data/fonts/ttf/STIXSizOneSymReg.ttf'
p999
aS'/Library/Frameworks/Python.framework/Versions/2.7/lib/python2.7/site-packages/matplotlib/mpl-data/fonts/ttf/cmr10.ttf'
p1000
aS'/Library/Frameworks/Python.framework/Versions/2.7/lib/python2.7/site-packages/matplotlib/mpl-data/fonts/ttf/VeraIt.ttf'
p1001
aS'/Library/Frameworks/Python.framework/Versions/2.7/lib/python2.7/site-packages/matplotlib/mpl-data/fonts/ttf/STIXSizThreeSymBol.ttf'
p1002
aS'/Library/Frameworks/Python.framework/Versions/2.7/lib/python2.7/site-packages/matplotlib/mpl-data/fonts/ttf/STIXSizThreeSymReg.ttf'
p1003
aS'/Library/Frameworks/Python.framework/Versions/2.7/lib/python2.7/site-packages/matplotlib/mpl-data/fonts/ttf/STIXGeneralBolIta.ttf'
p1004
aS'/Library/Frameworks/Python.framework/Versions/2.7/lib/python2.7/site-packages/matplotlib/mpl-data/fonts/ttf/VeraMono.ttf'
p1005
aS'/Library/Frameworks/Python.framework/Versions/2.7/lib/python2.7/site-packages/matplotlib/mpl-data/fonts/ttf/cmex10.ttf'
p1006
aS'/Library/Frameworks/Python.framework/Versions/2.7/lib/python2.7/site-packages/matplotlib/mpl-data/fonts/ttf/VeraMoBI.ttf'
p1007
aS'/Library/Frameworks/Python.framework/Versions/2.7/lib/python2.7/site-packages/matplotlib/mpl-data/fonts/ttf/STIXGeneral.ttf'
p1008
aS'/Library/Frameworks/Python.framework/Versions/2.7/lib/python2.7/site-packages/matplotlib/mpl-data/fonts/ttf/VeraMoIt.ttf'
p1009
aS'/Library/Frameworks/Python.framework/Versions/2.7/lib/python2.7/site-packages/matplotlib/mpl-data/fonts/ttf/STIXSizTwoSymBol.ttf'
p1010
aS'/Library/Frameworks/Python.framework/Versions/2.7/lib/python2.7/site-packages/matplotlib/mpl-data/fonts/ttf/VeraBI.ttf'
p1011
aS'/Library/Frameworks/Python.framework/Versions/2.7/lib/python2.7/site-packages/matplotlib/mpl-data/fonts/ttf/STIXNonUniIta.ttf'
p1012
aS'/Library/Frameworks/Python.framework/Versions/2.7/lib/python2.7/site-packages/matplotlib/mpl-data/fonts/ttf/cmb10.ttf'
p1013
aS'/Library/Frameworks/Python.framework/Versions/2.7/lib/python2.7/site-packages/matplotlib/mpl-data/fonts/ttf/cmss10.ttf'
p1014
aS'/Library/Frameworks/Python.framework/Versions/2.7/lib/python2.7/site-packages/matplotlib/mpl-data/fonts/ttf/VeraBd.ttf'
p1015
aS'/Library/Frameworks/Python.framework/Versions/2.7/lib/python2.7/site-packages/matplotlib/mpl-data/fonts/ttf/STIXSizOneSymBol.ttf'
p1016
aS'/Library/Frameworks/Python.framework/Versions/2.7/lib/python2.7/site-packages/matplotlib/mpl-data/fonts/ttf/STIXSizFourSymBol.ttf'
p1017
aS'/Library/Frameworks/Python.framework/Versions/2.7/lib/python2.7/site-packages/matplotlib/mpl-data/fonts/ttf/STIXNonUniBolIta.ttf'
p1018
aS'/Library/Frameworks/Python.framework/Versions/2.7/lib/python2.7/site-packages/matplotlib/mpl-data/fonts/ttf/STIXNonUniBol.ttf'
p1019
aS'/Library/Frameworks/Python.framework/Versions/2.7/lib/python2.7/site-packages/matplotlib/mpl-data/fonts/ttf/STIXNonUni.ttf'
p1020
aS'/Library/Frameworks/Python.framework/Versions/2.7/lib/python2.7/site-packages/matplotlib/mpl-data/fonts/ttf/VeraSeBd.ttf'
p1021
aS'/Library/Frameworks/Python.framework/Versions/2.7/lib/python2.7/site-packages/matplotlib/mpl-data/fonts/ttf/cmsy10.ttf'
p1022
aS'/Library/Frameworks/Python.framework/Versions/2.7/lib/python2.7/site-packages/matplotlib/mpl-data/fonts/ttf/Vera.ttf'
p1023
aS'/Library/Frameworks/Python.framework/Versions/2.7/lib/python2.7/site-packages/matplotlib/mpl-data/fonts/ttf/STIXGeneralBol.ttf'
p1024
aS'/Library/Frameworks/Python.framework/Versions/2.7/lib/python2.7/site-packages/matplotlib/mpl-data/fonts/ttf/cmtt10.ttf'
p1025
aS'/Library/Frameworks/Python.framework/Versions/2.7/lib/python2.7/site-packages/matplotlib/mpl-data/fonts/ttf/VeraSe.ttf'
p1026
aS'/Library/Frameworks/Python.framework/Versions/2.7/lib/python2.7/site-packages/matplotlib/mpl-data/fonts/ttf/STIXSizTwoSymReg.ttf'
p1027
aS'/usr/X11R6/lib/X11/fonts/OTF/SyrCOMMardinBold.otf'
p1028
aS'/Library/Fonts/Trebuchet MS Italic.ttf'
p1029
aS'/usr/X11/share/fonts/OTF/SyrCOMKharput.otf'
p1030
aS'/Library/Fonts/Hoefler Text Ornaments.ttf'
p1031
aS'/Library/Fonts/NewPeninimMTBoldInclined.ttf'
p1032
aS'/Library/Fonts/MshtakanRegular.ttf'
p1033
aS'/usr/X11/share/fonts/OTF/SyrCOMNisibinOutline.otf'
p1034
aS'/usr/X11/share/fonts/TTF/Vera.ttf'
p1035
aS'/System/Library/Fonts/\xe3\x83\x92\xe3\x83\xa9\xe3\x82\xad\xe3\x82\x99\xe3\x83\x8e\xe6\x98\x8e\xe6\x9c\x9d ProN W6.otf'
p1036
aS'/Library/Fonts/Osaka.ttf'
p1037
aS'/usr/X11/lib/X11/fonts/TTF/luximri.ttf'
p1038
aS'/Library/Fonts/Verdana Bold.ttf'
p1039
aS'/Library/Fonts/STIXIntUpReg.otf'
p1040
aS'/Library/Fonts/\xe5\x84\xb7\xe9\xbb\x91 Pro.ttf'
p1041
aS'/Library/Fonts/Arial Unicode.ttf'
p1042
aS'/usr/X11/lib/X11/fonts/TTF/VeraSe.ttf'
p1043
aS'/usr/X11/share/fonts/OTF/GohaTibebZemen.otf'
p1044
aS'/Library/Fonts/STIXSizThreeSymReg.otf'
p1045
aS'/usr/X11R6/lib/X11/fonts/TTF/VeraMoBI.ttf'
p1046
aS'/usr/X11/lib/X11/fonts/TTF/luxisri.ttf'
p1047
aS'/usr/X11R6/lib/X11/fonts/TTF/Vera.ttf'
p1048
aS'/usr/X11/lib/X11/fonts/OTF/SyrCOMNisibin.otf'
p1049
aS'/usr/X11R6/lib/X11/fonts/OTF/SyrCOMTalada.otf'
p1050
aS'/usr/X11R6/lib/X11/fonts/TTF/luxirri.ttf'
p1051
aS'/Library/Fonts/NewPeninimMT.ttf'
p1052
aS'/Library/Fonts/Times New Roman.ttf'
p1053
aS'/usr/X11/share/fonts/TTF/luximr.ttf'
p1054
aS'/Library/Fonts/Arial.ttf'
p1055
aS'/Library/Fonts/Raanana.ttf'
p1056
aS'/usr/X11/share/fonts/TTF/luximbi.ttf'
p1057
aS'/Library/Fonts/GujaratiMTBold.ttf'
p1058
aS'/usr/X11/lib/X11/fonts/TTF/VeraMoBI.ttf'
p1059
aS'/Library/Fonts/Arial Narrow.ttf'
p1060
aS'/usr/X11R6/lib/X11/fonts/TTF/VeraBI.ttf'
p1061
aS'/usr/X11/lib/X11/fonts/TTF/Vera.ttf'
p1062
aS'/Library/Fonts/NISC18030.ttf'
p1063
aS'/Library/Fonts/MshtakanOblique.ttf'
p1064
aS'/Library/Fonts/\xe3\x83\x92\xe3\x83\xa9\xe3\x82\xad\xe3\x82\x99\xe3\x83\x8e\xe8\xa7\x92\xe3\x82\xb3\xe3\x82\x99 Pro W3.otf'
p1065
aS'/usr/X11/lib/X11/fonts/OTF/SyrCOMBatnanBold.otf'
p1066
aS'/Library/Fonts/AppleMyungjo.ttf'
p1067
aS'/usr/X11/lib/X11/fonts/TTF/luxisbi.ttf'
p1068
aS'/usr/X11/lib/X11/fonts/TTF/VeraBd.ttf'
p1069
aS'/Library/Fonts/Tamil Sangam MN.ttf'
p1070
aS'/usr/X11/lib/X11/fonts/OTF/SyrCOMJerusalemOutline.otf'
p1071
aS'/System/Library/Fonts/ZapfDingbats.ttf'
p1072
aS'/Library/Fonts/Verdana.ttf'
p1073
aS'/Library/Fonts/Corsiva.ttf'
p1074
aS'/usr/X11/share/fonts/OTF/SyrCOMBatnanBold.otf'
p1075
aS'/usr/X11/share/fonts/TTF/VeraMoBd.ttf'
p1076
aS'/Library/Fonts/STIXIntDBol.otf'
p1077
aS'/usr/X11R6/lib/X11/fonts/OTF/SyrCOMAntioch.otf'
p1078
aS'/Library/Fonts/Apple LiSung Light.ttf'
p1079
aS'/usr/X11R6/lib/X11/fonts/TTF/VeraMoIt.ttf'
p1080
aS'/Library/Fonts/Telugu Sangam MN.ttf'
p1081
aS'/usr/X11/share/fonts/TTF/VeraBI.ttf'
p1082
aS'/usr/X11R6/lib/X11/fonts/TTF/VeraMono.ttf'
p1083
aS'/Library/Fonts/Myanmar Sangam MN.ttf'
p1084
aS'/Library/Fonts/STIXSizThreeSymBol.otf'
p1085
aS'/Library/Fonts/Courier New.ttf'
p1086
aS'/Library/Fonts/Arial Narrow Bold Italic.ttf'
p1087
aS'/usr/X11/lib/X11/fonts/OTF/SyrCOMJerusalem.otf'
p1088
aS'/Library/Fonts/Zapfino.ttf'
p1089
aS'/Library/Fonts/Arial Narrow Bold.ttf'
p1090
aS'/Library/Fonts/Times New Roman Italic.ttf'
p1091
aS'/Library/Fonts/Krungthep.ttf'
p1092
aS'/Library/Fonts/\xe3\x83\x92\xe3\x83\xa9\xe3\x82\xad\xe3\x82\x99\xe3\x83\x8e\xe6\x98\x8e\xe6\x9c\x9d Pro W3.otf'
p1093
aS'/usr/X11/share/fonts/OTF/SyrCOMJerusalemOutline.otf'
p1094
aS'/usr/X11R6/lib/X11/fonts/OTF/SyrCOMBatnan.otf'
p1095
aS'/usr/X11R6/lib/X11/fonts/OTF/GohaTibebZemen.otf'
p1096
aS'/Library/Fonts/Georgia.ttf'
p1097
aS'/usr/X11/share/fonts/OTF/SyrCOMTurAbdin.otf'
p1098
aS'/Library/Fonts/STIXIntSmBol.otf'
p1099
aS'/Library/Fonts/Trebuchet MS Bold.ttf'
p1100
aS'/usr/X11/lib/X11/fonts/OTF/SyrCOMTurAbdin.otf'
p1101
aS'/usr/X11/share/fonts/TTF/luxirb.ttf'
p1102
aS'/usr/X11/share/fonts/OTF/SyrCOMBatnan.otf'
p1103
aS'/usr/X11R6/lib/X11/fonts/TTF/VeraMoBd.ttf'
p1104
aS'/Library/Fonts/Sinhala Sangam MN.ttf'
p1105
aS'/Library/Fonts/Oriya Sangam MN.ttf'
p1106
aS'/usr/X11R6/lib/X11/fonts/TTF/luxirb.ttf'
p1107
aS'/usr/X11R6/lib/X11/fonts/TTF/luxirbi.ttf'
p1108
aS'/System/Library/Fonts/Apple Symbols.ttf'
p1109
aS'/usr/X11/share/fonts/TTF/luxisb.ttf'
p1110
aS'/Library/Fonts/Times New Roman Bold Italic.ttf'
p1111
aS'/Library/Fonts/Webdings.ttf'
p1112
aS'/Library/Fonts/Arial Narrow Italic.ttf'
p1113
aS'/usr/X11/lib/X11/fonts/OTF/SyrCOMCtesiphon.otf'
p1114
aS'/usr/X11R6/lib/X11/fonts/TTF/luximr.ttf'
p1115
aS'/usr/X11/lib/X11/fonts/OTF/SyrCOMTalada.otf'
p1116
aS'/usr/X11R6/lib/X11/fonts/OTF/SyrCOMUrhoyBold.otf'
p1117
aS'/System/Library/Fonts/\xe3\x83\x92\xe3\x83\xa9\xe3\x82\xad\xe3\x82\x99\xe3\x83\x8e\xe8\xa7\x92\xe3\x82\xb3\xe3\x82\x99 ProN W3.otf'
p1118
aS'/Library/Fonts/Pilgiche.ttf'
p1119
aS'/usr/X11/lib/X11/fonts/OTF/SyrCOMMidyat.otf'
p1120
aS'/System/Library/Fonts/Apple Braille Outline 8 Dot.ttf'
p1121
aS'/usr/X11R6/lib/X11/fonts/TTF/VeraSe.ttf'
p1122
aS'/Library/Fonts/Nadeem.ttf'
p1123
aS'/Library/Fonts/PlantagenetCherokee.ttf'
p1124
aS'/usr/X11R6/lib/X11/fonts/TTF/luxirr.ttf'
p1125
aS'/Library/Fonts/Times New Roman Bold.ttf'
p1126
aS'/Library/Fonts/BiauKai.ttf'
p1127
aS'/usr/X11/lib/X11/fonts/OTF/SyrCOMUrhoyBold.otf'
p1128
aS'/usr/X11/lib/X11/fonts/TTF/VeraIt.ttf'
p1129
aS'/usr/X11/share/fonts/TTF/luxisbi.ttf'
p1130
aS'/Library/Fonts/Arial Bold Italic.ttf'
p1131
aS'/usr/X11/lib/X11/fonts/TTF/GohaTibebZemen.ttf'
p1132
aS'/Library/Fonts/STIXVar.otf'
p1133
aS'/usr/X11/lib/X11/fonts/OTF/SyrCOMMardinBold.otf'
p1134
aS'/Library/Fonts/STIXVarBol.otf'
p1135
aS'/usr/X11R6/lib/X11/fonts/OTF/SyrCOMTurAbdin.otf'
p1136
aS'/usr/X11/lib/X11/fonts/OTF/SyrCOMMalankara.otf'
p1137
aS'/Library/Fonts/Hiragino Sans GB W3.otf'
p1138
aS'/System/Library/Fonts/\xe3\x83\x92\xe3\x83\xa9\xe3\x82\xad\xe3\x82\x99\xe3\x83\x8e\xe8\xa7\x92\xe3\x82\xb3\xe3\x82\x99 ProN W6.otf'
p1139
aS'/Library/Fonts/\xe3\x83\x92\xe3\x83\xa9\xe3\x82\xad\xe3\x82\x99\xe3\x83\x8e\xe8\xa7\x92\xe3\x82\xb3\xe3\x82\x99 StdN W8.otf'
p1140
aS'/Library/Fonts/MshtakanBold.ttf'
p1141
aS'/usr/X11/lib/X11/fonts/TTF/VeraMoIt.ttf'
p1142
aS'/usr/X11/lib/X11/fonts/TTF/VeraMono.ttf'
p1143
aS'/System/Library/Fonts/AppleGothic.ttf'
p1144
aS'/usr/X11/share/fonts/TTF/luxirbi.ttf'
p1145
aS'/usr/X11/lib/X11/fonts/OTF/SyrCOMBatnan.otf'
p1146
aS'/Library/Fonts/STIXIntUpBol.otf'
p1147
aS'/usr/X11/share/fonts/TTF/luxisri.ttf'
p1148
aS'/usr/X11R6/lib/X11/fonts/OTF/SyrCOMJerusalem.otf'
p1149
aS'/Library/Fonts/AlBayan.ttf'
p1150
aS'/Library/Fonts/STIXSizFiveSymReg.otf'
p1151
aS'/Library/Fonts/CorsivaBold.ttf'
p1152
aS'/usr/X11R6/lib/X11/fonts/TTF/luxisbi.ttf'
p1153
aS'/usr/X11/lib/X11/fonts/OTF/SyrCOMAdiabene.otf'
p1154
aS'/usr/X11/lib/X11/fonts/TTF/luxisb.ttf'
p1155
aS'/usr/X11/share/fonts/OTF/SyrCOMJerusalemItalic.otf'
p1156
aS'/Library/Fonts/Gurmukhi.ttf'
p1157
aS'/usr/X11/lib/X11/fonts/OTF/SyrCOMQenNeshrin.otf'
p1158
aS'/usr/X11R6/lib/X11/fonts/TTF/VeraIt.ttf'
p1159
aS'/Library/Fonts/\xe5\x8d\x8e\xe6\x96\x87\xe6\xa5\xb7\xe4\xbd\x93.ttf'
p1160
aS'/usr/X11/share/fonts/OTF/SyrCOMNisibin.otf'
p1161
aS'/System/Library/Fonts/Apple Color Emoji.ttf'
p1162
aS'/Library/Fonts/Skia.ttf'
p1163
aS'/usr/X11/share/fonts/OTF/SyrCOMAntioch.otf'
p1164
aS'/usr/X11R6/lib/X11/fonts/OTF/SyrCOMEdessa.otf'
p1165
aS'/Library/Fonts/\xe5\x8d\x8e\xe6\x96\x87\xe4\xbb\xbf\xe5\xae\x8b.ttf'
p1166
aS'/usr/X11/lib/X11/fonts/OTF/SyrCOMNisibinOutline.otf'
p1167
aS'/Library/Fonts/Arial Italic.ttf'
p1168
aS'/Library/Fonts/\xe3\x83\x92\xe3\x83\xa9\xe3\x82\xad\xe3\x82\x99\xe3\x83\x8e\xe8\xa7\x92\xe3\x82\xb3\xe3\x82\x99 Std W8.otf'
p1169
aS'/usr/X11/share/fonts/OTF/SyrCOMTalada.otf'
p1170
aS'/Library/Fonts/\xe5\x84\xb7\xe5\xae\x8b Pro.ttf'
p1171
aS'/Library/Fonts/\xe3\x83\x92\xe3\x83\xa9\xe3\x82\xad\xe3\x82\x99\xe3\x83\x8e\xe4\xb8\xb8\xe3\x82\xb3\xe3\x82\x99 Pro W4.otf'
p1172
aS'/Library/Fonts/STIXGeneralBol.otf'
p1173
aS'/Library/Fonts/STIXNonUniBolIta.otf'
p1174
aS'/System/Library/Fonts/Apple Braille Pinpoint 8 Dot.ttf'
p1175
aS'/Library/Fonts/Georgia Italic.ttf'
p1176
aS'/usr/X11R6/lib/X11/fonts/OTF/SyrCOMNisibinOutline.otf'
p1177
aS'/System/Library/Fonts/Apple Braille Outline 6 Dot.ttf'
p1178
aS'/Library/Fonts/Chalkduster.ttf'
p1179
aS'/Library/Fonts/Courier New Bold Italic.ttf'
p1180
aS'/Library/Fonts/RaananaBold.ttf'
p1181
aS'/usr/X11/share/fonts/TTF/luximri.ttf'
p1182
aS'/Library/Fonts/NewPeninimMTInclined.ttf'
p1183
aS'/usr/X11/lib/X11/fonts/OTF/SyrCOMKharput.otf'
p1184
aS'/Library/Fonts/Arial Rounded Bold.ttf'
p1185
aS'/Library/Fonts/DevanagariMTBold.ttf'
p1186
aS'/System/Library/Fonts/ThonburiBold.ttf'
p1187
aS'/usr/X11/share/fonts/OTF/SyrCOMUrhoy.otf'
p1188
aS'/usr/X11/lib/X11/fonts/TTF/luxirri.ttf'
p1189
aS'/usr/X11/share/fonts/OTF/SyrCOMAdiabene.otf'
p1190
aS'/Library/Fonts/PCmyoungjo.ttf'
p1191
aS'/System/Library/Fonts/LastResort.ttf'
p1192
aS'/usr/X11R6/lib/X11/fonts/OTF/SyrCOMCtesiphon.otf'
p1193
aS'/usr/X11R6/lib/X11/fonts/OTF/SyrCOMUrhoy.otf'
p1194
aS'/Library/Fonts/Verdana Bold Italic.ttf'
p1195
aS'/usr/X11/share/fonts/TTF/VeraMono.ttf'
p1196
aS'/usr/X11/share/fonts/TTF/luxirri.ttf'
p1197
aS'/usr/X11R6/lib/X11/fonts/TTF/VeraBd.ttf'
p1198
aS'/usr/X11/share/fonts/TTF/luxisr.ttf'
p1199
aS'/Library/Fonts/Hiragino Sans GB W6.otf'
p1200
aS'/Library/Fonts/Kailasa.ttf'
p1201
aS'/usr/X11/lib/X11/fonts/OTF/SyrCOMEdessa.otf'
p1202
aS'/Library/Fonts/STIXIntSmReg.otf'
p1203
aS'/Library/Fonts/Kokonor.ttf'
p1204
aS'/System/Library/Fonts/Geeza Pro Bold.ttf'
p1205
aS'/usr/X11/share/fonts/OTF/SyrCOMJerusalemBold.otf'
p1206
aS'/Library/Fonts/Verdana Italic.ttf'
p1207
aS'/Library/Fonts/DevanagariMT.ttf'
p1208
aS'/System/Library/Fonts/Apple Braille.ttf'
p1209
aS'/usr/X11R6/lib/X11/fonts/OTF/SyrCOMAdiabene.otf'
p1210
aS'/Library/Fonts/\xe3\x83\x92\xe3\x83\xa9\xe3\x82\xad\xe3\x82\x99\xe3\x83\x8e\xe6\x98\x8e\xe6\x9c\x9d Pro W6.otf'
p1211
aS'/usr/X11R6/lib/X11/fonts/OTF/SyrCOMQenNeshrin.otf'
p1212
aS'/usr/X11R6/lib/X11/fonts/OTF/SyrCOMBatnanBold.otf'
p1213
aS'/Library/Fonts/InaiMathi.ttf'
p1214
aS'/usr/X11/lib/X11/fonts/OTF/SyrCOMAntioch.otf'
p1215
aS'/usr/X11/lib/X11/fonts/TTF/luxirb.ttf'
p1216
aS'/Library/Fonts/STIXNonUni.otf'
p1217
aS'/usr/X11/share/fonts/TTF/luximb.ttf'
p1218
aS'/usr/X11/lib/X11/fonts/OTF/SyrCOMJerusalemBold.otf'
p1219
aS'/Library/Fonts/STIXIntDReg.otf'
p1220
aS'/usr/X11/share/fonts/TTF/VeraIt.ttf'
p1221
aS'/Library/Fonts/STIXNonUniIta.otf'
p1222
aS'/Library/Fonts/Baghdad.ttf'
p1223
aS'/Library/Fonts/Kannada Sangam MN.ttf'
p1224
aS'/usr/X11/lib/X11/fonts/TTF/luxirbi.ttf'
p1225
aS'/usr/X11R6/lib/X11/fonts/TTF/luximb.ttf'
p1226
aS'/Library/Fonts/Comic Sans MS Bold.ttf'
p1227
aS'/Library/Fonts/Trebuchet MS.ttf'
p1228
aS'/usr/X11R6/lib/X11/fonts/OTF/SyrCOMJerusalemOutline.otf'
p1229
aS'/usr/X11/share/fonts/TTF/VeraMoIt.ttf'
p1230
aS'/usr/X11/lib/X11/fonts/TTF/VeraBI.ttf'
p1231
aS'/Library/Fonts/Courier New Bold.ttf'
p1232
aS'/Library/Fonts/BigCaslon.ttf'
p1233
aS'/usr/X11/lib/X11/fonts/OTF/SyrCOMJerusalemItalic.otf'
p1234
aS'/usr/X11/lib/X11/fonts/TTF/luxisr.ttf'
p1235
aS'/usr/X11/lib/X11/fonts/OTF/SyrCOMUrhoy.otf'
p1236
aS'/Library/Fonts/Ayuthaya.ttf'
p1237
aS'/usr/X11R6/lib/X11/fonts/OTF/SyrCOMKharput.otf'
p1238
aS'/usr/X11R6/lib/X11/fonts/OTF/SyrCOMJerusalemBold.otf'
p1239
aS'/Library/Fonts/Herculanum.ttf'
p1240
aS'/Library/Fonts/DecoTypeNaskh.ttf'
p1241
aS'/usr/X11R6/lib/X11/fonts/OTF/SyrCOMMidyat.otf'
p1242
aS'/System/Library/Fonts/Apple Braille Pinpoint 6 Dot.ttf'
p1243
aS'/usr/X11/share/fonts/TTF/luxirr.ttf'
p1244
aS'/Library/Fonts/\xe3\x83\x92\xe3\x83\xa9\xe3\x82\xad\xe3\x82\x99\xe3\x83\x8e\xe8\xa7\x92\xe3\x82\xb3\xe3\x82\x99 Pro W6.otf'
p1245
aS'/System/Library/Fonts/Symbol.ttf'
p1246
aS'/usr/X11R6/lib/X11/fonts/TTF/luxisr.ttf'
p1247
aS'/Library/Fonts/Trebuchet MS Bold Italic.ttf'
p1248
aS'/usr/X11/lib/X11/fonts/TTF/VeraSeBd.ttf'
p1249
aS'/usr/X11/share/fonts/TTF/VeraSeBd.ttf'
p1250
aS'/Library/Fonts/AlBayanBold.ttf'
p1251
aS'/Library/Fonts/Wingdings 2.ttf'
p1252
aS'/Library/Fonts/HeadlineA.ttf'
p1253
aS'/Library/Fonts/Tahoma.ttf'
p1254
aS'/Library/Fonts/Brush Script.ttf'
p1255
aS'/Library/Fonts/ArialHBBold.ttf'
p1256
aS'/System/Library/Fonts/Keyboard.ttf'
p1257
aS'/usr/X11/share/fonts/OTF/SyrCOMJerusalem.otf'
p1258
aS'/Library/Fonts/\xe3\x83\x92\xe3\x83\xa9\xe3\x82\xad\xe3\x82\x99\xe3\x83\x8e\xe4\xb8\xb8\xe3\x82\xb3\xe3\x82\x99 ProN W4.otf'
p1259
aS'/usr/X11/share/fonts/TTF/VeraBd.ttf'
p1260
aS'/usr/X11/share/fonts/TTF/VeraSe.ttf'
p1261
aS'/usr/X11/lib/X11/fonts/OTF/GohaTibebZemen.otf'
p1262
aS'/Library/Fonts/STIXSizOneSymReg.otf'
p1263
aS'/Library/Fonts/STIXIntUpSmReg.otf'
p1264
aS'/Library/Fonts/Andale Mono.ttf'
p1265
aS'/System/Library/Fonts/Geeza Pro.ttf'
p1266
aS'/Library/Fonts/Khmer Sangam MN.ttf'
p1267
aS'/usr/X11R6/lib/X11/fonts/TTF/luximbi.ttf'
p1268
aS'/usr/X11R6/lib/X11/fonts/OTF/SyrCOMMalankara.otf'
p1269
aS'/Library/Fonts/Microsoft Sans Serif.ttf'
p1270
aS'/usr/X11/share/fonts/OTF/SyrCOMUrhoyBold.otf'
p1271
aS'/usr/X11/lib/X11/fonts/TTF/luximb.ttf'
p1272
aS'/Library/Fonts/STIXIntUpDBol.otf'
p1273
aS'/Library/Fonts/Kai.ttf'
p1274
aS'/Library/Fonts/STIXGeneral.otf'
p1275
aS'/Library/Fonts/Courier New Italic.ttf'
p1276
aS'/Library/Fonts/Arial Black.ttf'
p1277
aS'/usr/X11/lib/X11/fonts/TTF/luxirr.ttf'
p1278
aS'/usr/X11/lib/X11/fonts/OTF/SyrCOMMardin.otf'
p1279
aS'/Library/Fonts/STIXGeneralItalic.otf'
p1280
aS'/usr/X11/share/fonts/OTF/SyrCOMQenNeshrin.otf'
p1281
aS'/Library/Fonts/Silom.ttf'
p1282
aS'/Library/Fonts/MshtakanBoldOblique.ttf'
p1283
aS'/Library/Fonts/\xe5\x8d\x8e\xe6\x96\x87\xe5\xae\x8b\xe4\xbd\x93.ttf'
p1284
aS'/Library/Fonts/Malayalam Sangam MN.ttf'
p1285
aS'/Library/Fonts/Gujarati Sangam MN.ttf'
p1286
aS'/Library/Fonts/\xe5\x8d\x8e\xe6\x96\x87\xe7\xbb\x86\xe9\xbb\x91.ttf'
p1287
aS'/Library/Fonts/STIXSizFourSymReg.otf'
p1288
aS'/usr/X11R6/lib/X11/fonts/OTF/SyrCOMNisibin.otf'
p1289
aS'/usr/X11R6/lib/X11/fonts/TTF/VeraSeBd.ttf'
p1290
aS'/Library/Fonts/\xe5\x8d\x8e\xe6\x96\x87\xe9\xbb\x91\xe4\xbd\x93.ttf'
p1291
aS'/Library/Fonts/Apple Chancery.ttf'
p1292
aS'/usr/X11R6/lib/X11/fonts/OTF/SyrCOMMardin.otf'
p1293
aS'/usr/X11/share/fonts/OTF/SyrCOMEdessa.otf'
p1294
aS'/System/Library/Fonts/Thonburi.ttf'
p1295
aS'/usr/X11/share/fonts/OTF/SyrCOMMardinBold.otf'
p1296
aS'/usr/X11/share/fonts/OTF/SyrCOMMidyat.otf'
p1297
aS'/usr/X11/share/fonts/TTF/VeraMoBI.ttf'
p1298
aS'/usr/X11/share/fonts/OTF/SyrCOMMardin.otf'
p1299
aS'/Library/Fonts/Wingdings 3.ttf'
p1300
aS'/Library/Fonts/STIXGeneralBolIta.otf'
p1301
aS'/Library/Fonts/ArialHB.ttf'
p1302
aS'/Library/Fonts/STIXIntUpSmBol.otf'
p1303
aS'/Library/Fonts/Lao Sangam MN.ttf'
p1304
aS'/usr/X11R6/lib/X11/fonts/TTF/GohaTibebZemen.ttf'
p1305
aS'/Library/Fonts/KufiStandardGK.ttf'
p1306
aS'/usr/X11R6/lib/X11/fonts/TTF/luxisb.ttf'
p1307
aS'/usr/X11/share/fonts/OTF/SyrCOMMalankara.otf'
p1308
aS'/usr/X11R6/lib/X11/fonts/OTF/SyrCOMJerusalemItalic.otf'
p1309
aS'/Library/Fonts/STIXSizOneSymBol.otf'
p1310
aS'/Library/Fonts/Comic Sans MS.ttf'
p1311
aS'/Library/Fonts/STIXSizTwoSymReg.otf'
p1312
aS'/Library/Fonts/Hei.ttf'
p1313
aS'/Library/Fonts/STIXSizFourSymBol.otf'
p1314
aS'/Library/Fonts/Apple LiGothic Medium.ttf'
p1315
aS'/Library/Fonts/NewPeninimMTBold.ttf'
p1316
aS'/Library/Fonts/Arial Bold.ttf'
p1317
aS'/Library/Fonts/Georgia Bold.ttf'
p1318
aS'/System/Library/Fonts/\xe3\x83\x92\xe3\x83\xa9\xe3\x82\xad\xe3\x82\x99\xe3\x83\x8e\xe6\x98\x8e\xe6\x9c\x9d ProN W3.otf'
p1319
aS'/Library/Fonts/OsakaMono.ttf'
p1320
aS'/Library/Fonts/Gungseouche.ttf'
p1321
aS'/usr/X11/share/fonts/TTF/GohaTibebZemen.ttf'
p1322
aS'/usr/X11/share/fonts/OTF/SyrCOMCtesiphon.otf'
p1323
aS'/usr/X11R6/lib/X11/fonts/TTF/luxisri.ttf'
p1324
aS'/Library/Fonts/STIXSizTwoSymBol.otf'
p1325
aS'/Library/Fonts/Wingdings.ttf'
p1326
aS'/Library/Fonts/Impact.ttf'
p1327
aS'/usr/X11/lib/X11/fonts/TTF/VeraMoBd.ttf'
p1328
aS'/Library/Fonts/Tahoma Bold.ttf'
p1329
aS'/Library/Fonts/STIXNonUniBol.otf'
p1330
aS'/Library/Fonts/Georgia Bold Italic.ttf'
p1331
aS'/Library/Fonts/STIXIntUpDReg.otf'
p1332
aS'/Library/Fonts/Sathu.ttf'
p1333
aS'/usr/X11R6/lib/X11/fonts/TTF/luximri.ttf'
p1334
aS'/Library/Fonts/GujaratiMT.ttf'
p1335
aS'/Library/Fonts/Bangla Sangam MN.ttf'
p1336
aS'/usr/X11/lib/X11/fonts/TTF/luximbi.ttf'
p1337
aS'/usr/X11/lib/X11/fonts/TTF/luximr.ttf'
p1338
asS'_FontManager__default_weight'
p1339
g13
sS'_version'
p1340
I101
sS'ttf_lookup_cache'
p1341
(dp1342
sS'default_size'
p1343
NsS'defaultFont'
p1344
(dp1345
g988
S'/Library/Frameworks/Python.framework/Versions/2.7/lib/python2.7/site-packages/matplotlib/mpl-data/fonts/afm/pbkdi8a.afm'
p1346
sg990
g1023
ssS'afmfiles'
p1347
(lp1348
g1346
aS'/Library/Frameworks/Python.framework/Versions/2.7/lib/python2.7/site-packages/matplotlib/mpl-data/fonts/pdfcorefonts/Courier-Oblique.afm'
p1349
aS'/Library/Frameworks/Python.framework/Versions/2.7/lib/python2.7/site-packages/matplotlib/mpl-data/fonts/afm/pplr8a.afm'
p1350
aS'/Library/Frameworks/Python.framework/Versions/2.7/lib/python2.7/site-packages/matplotlib/mpl-data/fonts/afm/ptmr8a.afm'
p1351
aS'/Library/Frameworks/Python.framework/Versions/2.7/lib/python2.7/site-packages/matplotlib/mpl-data/fonts/afm/putr8a.afm'
p1352
aS'/Library/Frameworks/Python.framework/Versions/2.7/lib/python2.7/site-packages/matplotlib/mpl-data/fonts/afm/phvlo8a.afm'
p1353
aS'/Library/Frameworks/Python.framework/Versions/2.7/lib/python2.7/site-packages/matplotlib/mpl-data/fonts/afm/pncb8a.afm'
p1354
aS'/Library/Frameworks/Python.framework/Versions/2.7/lib/python2.7/site-packages/matplotlib/mpl-data/fonts/afm/ptmb8a.afm'
p1355
aS'/Library/Frameworks/Python.framework/Versions/2.7/lib/python2.7/site-packages/matplotlib/mpl-data/fonts/pdfcorefonts/Courier.afm'
p1356
aS'/Library/Frameworks/Python.framework/Versions/2.7/lib/python2.7/site-packages/matplotlib/mpl-data/fonts/afm/pcrr8a.afm'
p1357
aS'/Library/Frameworks/Python.framework/Versions/2.7/lib/python2.7/site-packages/matplotlib/mpl-data/fonts/afm/phvr8an.afm'
p1358
aS'/Library/Frameworks/Python.framework/Versions/2.7/lib/python2.7/site-packages/matplotlib/mpl-data/fonts/afm/pagd8a.afm'
p1359
aS'/Library/Frameworks/Python.framework/Versions/2.7/lib/python2.7/site-packages/matplotlib/mpl-data/fonts/afm/pcrro8a.afm'
p1360
aS'/Library/Frameworks/Python.framework/Versions/2.7/lib/python2.7/site-packages/matplotlib/mpl-data/fonts/afm/pagko8a.afm'
p1361
aS'/Library/Frameworks/Python.framework/Versions/2.7/lib/python2.7/site-packages/matplotlib/mpl-data/fonts/afm/phvro8a.afm'
p1362
aS'/Library/Frameworks/Python.framework/Versions/2.7/lib/python2.7/site-packages/matplotlib/mpl-data/fonts/afm/pncr8a.afm'
p1363
aS'/Library/Frameworks/Python.framework/Versions/2.7/lib/python2.7/site-packages/matplotlib/mpl-data/fonts/afm/ptmbi8a.afm'
p1364
aS'/Library/Frameworks/Python.framework/Versions/2.7/lib/python2.7/site-packages/matplotlib/mpl-data/fonts/afm/phvro8an.afm'
p1365
aS'/Library/Frameworks/Python.framework/Versions/2.7/lib/python2.7/site-packages/matplotlib/mpl-data/fonts/afm/pbkl8a.afm'
p1366
aS'/Library/Frameworks/Python.framework/Versions/2.7/lib/python2.7/site-packages/matplotlib/mpl-data/fonts/pdfcorefonts/Times-Roman.afm'
p1367
aS'/Library/Frameworks/Python.framework/Versions/2.7/lib/python2.7/site-packages/matplotlib/mpl-data/fonts/pdfcorefonts/Times-BoldItalic.afm'
p1368
aS'/Library/Frameworks/Python.framework/Versions/2.7/lib/python2.7/site-packages/matplotlib/mpl-data/fonts/afm/ptmri8a.afm'
p1369
aS'/Library/Frameworks/Python.framework/Versions/2.7/lib/python2.7/site-packages/matplotlib/mpl-data/fonts/afm/pagk8a.afm'
p1370
aS'/Library/Frameworks/Python.framework/Versions/2.7/lib/python2.7/site-packages/matplotlib/mpl-data/fonts/afm/phvbo8a.afm'
p1371
aS'/Library/Frameworks/Python.framework/Versions/2.7/lib/python2.7/site-packages/matplotlib/mpl-data/fonts/afm/cmex10.afm'
p1372
aS'/Library/Frameworks/Python.framework/Versions/2.7/lib/python2.7/site-packages/matplotlib/mpl-data/fonts/pdfcorefonts/Courier-BoldOblique.afm'
p1373
aS'/Library/Frameworks/Python.framework/Versions/2.7/lib/python2.7/site-packages/matplotlib/mpl-data/fonts/afm/pagdo8a.afm'
p1374
aS'/Library/Frameworks/Python.framework/Versions/2.7/lib/python2.7/site-packages/matplotlib/mpl-data/fonts/pdfcorefonts/ZapfDingbats.afm'
p1375
aS'/Library/Frameworks/Python.framework/Versions/2.7/lib/python2.7/site-packages/matplotlib/mpl-data/fonts/afm/pbkli8a.afm'
p1376
aS'/Library/Frameworks/Python.framework/Versions/2.7/lib/python2.7/site-packages/matplotlib/mpl-data/fonts/afm/cmtt10.afm'
p1377
aS'/Library/Frameworks/Python.framework/Versions/2.7/lib/python2.7/site-packages/matplotlib/mpl-data/fonts/pdfcorefonts/Times-Italic.afm'
p1378
aS'/Library/Frameworks/Python.framework/Versions/2.7/lib/python2.7/site-packages/matplotlib/mpl-data/fonts/afm/putb8a.afm'
p1379
aS'/Library/Frameworks/Python.framework/Versions/2.7/lib/python2.7/site-packages/matplotlib/mpl-data/fonts/afm/putbi8a.afm'
p1380
aS'/Library/Frameworks/Python.framework/Versions/2.7/lib/python2.7/site-packages/matplotlib/mpl-data/fonts/afm/pzdr.afm'
p1381
aS'/Library/Frameworks/Python.framework/Versions/2.7/lib/python2.7/site-packages/matplotlib/mpl-data/fonts/pdfcorefonts/Courier-Bold.afm'
p1382
aS'/Library/Frameworks/Python.framework/Versions/2.7/lib/python2.7/site-packages/matplotlib/mpl-data/fonts/afm/pncri8a.afm'
p1383
aS'/Library/Frameworks/Python.framework/Versions/2.7/lib/python2.7/site-packages/matplotlib/mpl-data/fonts/afm/cmsy10.afm'
p1384
aS'/Library/Frameworks/Python.framework/Versions/2.7/lib/python2.7/site-packages/matplotlib/mpl-data/fonts/afm/pbkd8a.afm'
p1385
aS'/Library/Frameworks/Python.framework/Versions/2.7/lib/python2.7/site-packages/matplotlib/mpl-data/fonts/afm/phvbo8an.afm'
p1386
aS'/Library/Frameworks/Python.framework/Versions/2.7/lib/python2.7/site-packages/matplotlib/mpl-data/fonts/afm/pzcmi8a.afm'
p1387
aS'/Library/Frameworks/Python.framework/Versions/2.7/lib/python2.7/site-packages/matplotlib/mpl-data/fonts/afm/psyr.afm'
p1388
aS'/Library/Frameworks/Python.framework/Versions/2.7/lib/python2.7/site-packages/matplotlib/mpl-data/fonts/afm/cmr10.afm'
p1389
aS'/Library/Frameworks/Python.framework/Versions/2.7/lib/python2.7/site-packages/matplotlib/mpl-data/fonts/afm/pcrb8a.afm'
p1390
aS'/Library/Frameworks/Python.framework/Versions/2.7/lib/python2.7/site-packages/matplotlib/mpl-data/fonts/pdfcorefonts/Times-Bold.afm'
p1391
aS'/Library/Frameworks/Python.framework/Versions/2.7/lib/python2.7/site-packages/matplotlib/mpl-data/fonts/afm/pplri8a.afm'
p1392
aS'/Library/Frameworks/Python.framework/Versions/2.7/lib/python2.7/site-packages/matplotlib/mpl-data/fonts/afm/phvb8a.afm'
p1393
aS'/Library/Frameworks/Python.framework/Versions/2.7/lib/python2.7/site-packages/matplotlib/mpl-data/fonts/afm/phvb8an.afm'
p1394
aS'/Library/Frameworks/Python.framework/Versions/2.7/lib/python2.7/site-packages/matplotlib/mpl-data/fonts/afm/pcrbo8a.afm'
p1395
aS'/Library/Frameworks/Python.framework/Versions/2.7/lib/python2.7/site-packages/matplotlib/mpl-data/fonts/afm/pplbi8a.afm'
p1396
aS'/Library/Frameworks/Python.framework/Versions/2.7/lib/python2.7/site-packages/matplotlib/mpl-data/fonts/pdfcorefonts/Helvetica-Oblique.afm'
p1397
aS'/Library/Frameworks/Python.framework/Versions/2.7/lib/python2.7/site-packages/matplotlib/mpl-data/fonts/afm/cmmi10.afm'
p1398
aS'/Library/Frameworks/Python.framework/Versions/2.7/lib/python2.7/site-packages/matplotlib/mpl-data/fonts/pdfcorefonts/Helvetica-BoldOblique.afm'
p1399
aS'/Library/Frameworks/Python.framework/Versions/2.7/lib/python2.7/site-packages/matplotlib/mpl-data/fonts/afm/pncbi8a.afm'
p1400
aS'/Library/Frameworks/Python.framework/Versions/2.7/lib/python2.7/site-packages/matplotlib/mpl-data/fonts/afm/phvl8a.afm'
p1401
aS'/Library/Frameworks/Python.framework/Versions/2.7/lib/python2.7/site-packages/matplotlib/mpl-data/fonts/afm/putri8a.afm'
p1402
aS'/Library/Frameworks/Python.framework/Versions/2.7/lib/python2.7/site-packages/matplotlib/mpl-data/fonts/afm/phvr8a.afm'
p1403
aS'/Library/Frameworks/Python.framework/Versions/2.7/lib/python2.7/site-packages/matplotlib/mpl-data/fonts/pdfcorefonts/Helvetica.afm'
p1404
aS'/Library/Frameworks/Python.framework/Versions/2.7/lib/python2.7/site-packages/matplotlib/mpl-data/fonts/afm/pplb8a.afm'
p1405
aS'/Library/Frameworks/Python.framework/Versions/2.7/lib/python2.7/site-packages/matplotlib/mpl-data/fonts/pdfcorefonts/Symbol.afm'
p1406
aS'/Library/Frameworks/Python.framework/Versions/2.7/lib/python2.7/site-packages/matplotlib/mpl-data/fonts/pdfcorefonts/Helvetica-Bold.afm'
p1407
aS'/usr/X11/lib/X11/fonts/Type1/UTB_____.afm'
p1408
aS'/usr/X11/lib/X11/fonts/Type1/c0583bt_.afm'
p1409
aS'/usr/X11/lib/X11/fonts/Type1/l049036t.afm'
p1410
aS'/usr/X11/lib/X11/fonts/Type1/c0649bt_.afm'
p1411
aS'/usr/X11/lib/X11/fonts/Type1/UTRG____.afm'
p1412
aS'/usr/X11/lib/X11/fonts/Type1/c0582bt_.afm'
p1413
aS'/usr/X11/lib/X11/fonts/Type1/c0648bt_.afm'
p1414
aS'/usr/X11/lib/X11/fonts/Type1/c0633bt_.afm'
p1415
aS'/usr/X11/lib/X11/fonts/Type1/l048013t.afm'
p1416
aS'/usr/X11/lib/X11/fonts/Type1/courb.afm'
p1417
aS'/usr/X11/lib/X11/fonts/Type1/c0419bt_.afm'
p1418
aS'/usr/X11/lib/X11/fonts/Type1/UTI_____.afm'
p1419
aS'/usr/X11/lib/X11/fonts/Type1/l049016t.afm'
p1420
aS'/usr/X11/lib/X11/fonts/Type1/l048033t.afm'
p1421
aS'/usr/X11/lib/X11/fonts/Type1/l048016t.afm'
p1422
aS'/usr/X11/lib/X11/fonts/Type1/l048036t.afm'
p1423
aS'/usr/X11/lib/X11/fonts/Type1/courbi.afm'
p1424
aS'/usr/X11/lib/X11/fonts/Type1/c0632bt_.afm'
p1425
aS'/usr/X11/lib/X11/fonts/Type1/l049013t.afm'
p1426
aS'/usr/X11/lib/X11/fonts/Type1/c0611bt_.afm'
p1427
aS'/usr/X11/lib/X11/fonts/Type1/l047036t.afm'
p1428
aS'/usr/X11/lib/X11/fonts/Type1/l047016t.afm'
p1429
aS'/usr/X11/lib/X11/fonts/Type1/l047033t.afm'
p1430
aS'/usr/X11/lib/X11/fonts/Type1/l047013t.afm'
p1431
aS'/usr/X11/lib/X11/fonts/Type1/l049033t.afm'
p1432
aS'/usr/X11/lib/X11/fonts/Type1/UTBI____.afm'
p1433
aS'/usr/X11/lib/X11/fonts/Type1/cour.afm'
p1434
aS'/usr/X11/lib/X11/fonts/Type1/couri.afm'
p1435
asS'afmlist'
p1436
(lp1437
g7
(g8
g9
NtRp1438
(dp1439
g12
g29
sg14
S'ITC Bookman'
p1440
sg16
I600
sg17
g13
sg18
g13
sg19
g1346
sg21
g22
sbag7
(g8
g9
NtRp1441
(dp1442
g12
g29
sg14
S'Courier'
p1443
sg16
I500
sg17
g13
sg18
g13
sg19
g1349
sg21
g22
sbag7
(g8
g9
NtRp1444
(dp1445
g12
g13
sg14
S'Palatino'
p1446
sg16
I500
sg17
g13
sg18
g13
sg19
g1350
sg21
g22
sbag7
(g8
g9
NtRp1447
(dp1448
g12
g13
sg14
S'Times'
p1449
sg16
I500
sg17
g13
sg18
g13
sg19
g1351
sg21
g22
sbag7
(g8
g9
NtRp1450
(dp1451
g12
g13
sg14
S'Utopia'
p1452
sg16
I400
sg17
g13
sg18
g13
sg19
g1352
sg21
g22
sbag7
(g8
g9
NtRp1453
(dp1454
g12
g29
sg14
S'Helvetica'
p1455
sg16
I200
sg17
g13
sg18
g13
sg19
g1353
sg21
g22
sbag7
(g8
g9
NtRp1456
(dp1457
g12
g13
sg14
S'New Century Schoolbook'
p1458
sg16
I700
sg17
g13
sg18
g13
sg19
g1354
sg21
g22
sbag7
(g8
g9
NtRp1459
(dp1460
g12
g13
sg14
S'Times'
p1461
sg16
I700
sg17
g13
sg18
g13
sg19
g1355
sg21
g22
sbag7
(g8
g9
NtRp1462
(dp1463
g12
g13
sg14
S'Courier'
p1464
sg16
I500
sg17
g13
sg18
g13
sg19
g1356
sg21
g22
sbag7
(g8
g9
NtRp1465
(dp1466
g12
g13
sg14
S'Courier'
p1467
sg16
I500
sg17
g13
sg18
g13
sg19
g1357
sg21
g22
sbag7
(g8
g9
NtRp1468
(dp1469
g12
g13
sg14
S'Helvetica'
p1470
sg16
I500
sg17
g268
sg18
g13
sg19
g1358
sg21
g22
sbag7
(g8
g9
NtRp1471
(dp1472
g12
g13
sg14
S'ITC Avant Garde Gothic'
p1473
sg16
I600
sg17
g13
sg18
g13
sg19
g1359
sg21
g22
sbag7
(g8
g9
NtRp1474
(dp1475
g12
g29
sg14
S'Courier'
p1476
sg16
I500
sg17
g13
sg18
g13
sg19
g1360
sg21
g22
sbag7
(g8
g9
NtRp1477
(dp1478
g12
g29
sg14
S'ITC Avant Garde Gothic'
p1479
sg16
I400
sg17
g13
sg18
g13
sg19
g1361
sg21
g22
sbag7
(g8
g9
NtRp1480
(dp1481
g12
g29
sg14
S'Helvetica'
p1482
sg16
I500
sg17
g13
sg18
g13
sg19
g1362
sg21
g22
sbag7
(g8
g9
NtRp1483
(dp1484
g12
g13
sg14
S'New Century Schoolbook'
p1485
sg16
I500
sg17
g13
sg18
g13
sg19
g1363
sg21
g22
sbag7
(g8
g9
NtRp1486
(dp1487
g12
g29
sg14
S'Times'
p1488
sg16
I700
sg17
g13
sg18
g13
sg19
g1364
sg21
g22
sbag7
(g8
g9
NtRp1489
(dp1490
g12
g29
sg14
S'Helvetica'
p1491
sg16
I500
sg17
g268
sg18
g13
sg19
g1365
sg21
g22
sbag7
(g8
g9
NtRp1492
(dp1493
g12
g13
sg14
S'ITC Bookman'
p1494
sg16
I200
sg17
g13
sg18
g13
sg19
g1366
sg21
g22
sbag7
(g8
g9
NtRp1495
(dp1496
g12
g13
sg14
S'Times'
p1497
sg16
I500
sg17
g13
sg18
g13
sg19
g1367
sg21
g22
sbag7
(g8
g9
NtRp1498
(dp1499
g12
g29
sg14
S'Times'
p1500
sg16
I700
sg17
g13
sg18
g13
sg19
g1368
sg21
g22
sbag7
(g8
g9
NtRp1501
(dp1502
g12
g29
sg14
S'Times'
p1503
sg16
I500
sg17
g13
sg18
g13
sg19
g1369
sg21
g22
sbag7
(g8
g9
NtRp1504
(dp1505
g12
g13
sg14
S'ITC Avant Garde Gothic'
p1506
sg16
I400
sg17
g13
sg18
g13
sg19
g1370
sg21
g22
sbag7
(g8
g9
NtRp1507
(dp1508
g12
g29
sg14
S'Helvetica'
p1509
sg16
I700
sg17
g13
sg18
g13
sg19
g1371
sg21
g22
sbag7
(g8
g9
NtRp1510
(dp1511
g12
g13
sg14
S'Computer Modern'
p1512
sg16
I500
sg17
g13
sg18
g13
sg19
g1372
sg21
g22
sbag7
(g8
g9
NtRp1513
(dp1514
g12
g29
sg14
S'Courier'
p1515
sg16
I700
sg17
g13
sg18
g13
sg19
g1373
sg21
g22
sbag7
(g8
g9
NtRp1516
(dp1517
g12
g29
sg14
S'ITC Avant Garde Gothic'
p1518
sg16
I600
sg17
g13
sg18
g13
sg19
g1374
sg21
g22
sbag7
(g8
g9
NtRp1519
(dp1520
g12
g13
sg14
S'ZapfDingbats'
p1521
sg16
I500
sg17
g13
sg18
g13
sg19
g1375
sg21
g22
sbag7
(g8
g9
NtRp1522
(dp1523
g12
g29
sg14
S'ITC Bookman'
p1524
sg16
I200
sg17
g13
sg18
g13
sg19
g1376
sg21
g22
sbag7
(g8
g9
NtRp1525
(dp1526
g12
g13
sg14
S'Computer Modern'
p1527
sg16
I500
sg17
g13
sg18
g13
sg19
g1377
sg21
g22
sbag7
(g8
g9
NtRp1528
(dp1529
g12
g29
sg14
S'Times'
p1530
sg16
I500
sg17
g13
sg18
g13
sg19
g1378
sg21
g22
sbag7
(g8
g9
NtRp1531
(dp1532
g12
g13
sg14
S'Utopia'
p1533
sg16
I700
sg17
g13
sg18
g13
sg19
g1379
sg21
g22
sbag7
(g8
g9
NtRp1534
(dp1535
g12
g29
sg14
S'Utopia'
p1536
sg16
I700
sg17
g13
sg18
g13
sg19
g1380
sg21
g22
sbag7
(g8
g9
NtRp1537
(dp1538
g12
g13
sg14
S'ITC Zapf Dingbats'
p1539
sg16
I500
sg17
g13
sg18
g13
sg19
g1381
sg21
g22
sbag7
(g8
g9
NtRp1540
(dp1541
g12
g13
sg14
S'Courier'
p1542
sg16
I700
sg17
g13
sg18
g13
sg19
g1382
sg21
g22
sbag7
(g8
g9
NtRp1543
(dp1544
g12
g29
sg14
S'New Century Schoolbook'
p1545
sg16
I500
sg17
g13
sg18
g13
sg19
g1383
sg21
g22
sbag7
(g8
g9
NtRp1546
(dp1547
g12
g29
sg14
S'Computer Modern'
p1548
sg16
I500
sg17
g13
sg18
g13
sg19
g1384
sg21
g22
sbag7
(g8
g9
NtRp1549
(dp1550
g12
g13
sg14
S'ITC Bookman'
p1551
sg16
I600
sg17
g13
sg18
g13
sg19
g1385
sg21
g22
sbag7
(g8
g9
NtRp1552
(dp1553
g12
g29
sg14
S'Helvetica'
p1554
sg16
I700
sg17
g268
sg18
g13
sg19
g1386
sg21
g22
sbag7
(g8
g9
NtRp1555
(dp1556
g12
g29
sg14
S'ITC Zapf Chancery'
p1557
sg16
I500
sg17
g13
sg18
g13
sg19
g1387
sg21
g22
sbag7
(g8
g9
NtRp1558
(dp1559
g12
g13
sg14
S'Symbol'
p1560
sg16
I500
sg17
g13
sg18
g13
sg19
g1388
sg21
g22
sbag7
(g8
g9
NtRp1561
(dp1562
g12
g13
sg14
S'Computer Modern'
p1563
sg16
I500
sg17
g13
sg18
g13
sg19
g1389
sg21
g22
sbag7
(g8
g9
NtRp1564
(dp1565
g12
g13
sg14
S'Courier'
p1566
sg16
I700
sg17
g13
sg18
g13
sg19
g1390
sg21
g22
sbag7
(g8
g9
NtRp1567
(dp1568
g12
g13
sg14
S'Times'
p1569
sg16
I700
sg17
g13
sg18
g13
sg19
g1391
sg21
g22
sbag7
(g8
g9
NtRp1570
(dp1571
g12
g29
sg14
S'Palatino'
p1572
sg16
I500
sg17
g13
sg18
g13
sg19
g1392
sg21
g22
sbag7
(g8
g9
NtRp1573
(dp1574
g12
g13
sg14
S'Helvetica'
p1575
sg16
I700
sg17
g13
sg18
g13
sg19
g1393
sg21
g22
sbag7
(g8
g9
NtRp1576
(dp1577
g12
g13
sg14
S'Helvetica'
p1578
sg16
I700
sg17
g268
sg18
g13
sg19
g1394
sg21
g22
sbag7
(g8
g9
NtRp1579
(dp1580
g12
g29
sg14
S'Courier'
p1581
sg16
I700
sg17
g13
sg18
g13
sg19
g1395
sg21
g22
sbag7
(g8
g9
NtRp1582
(dp1583
g12
g29
sg14
S'Palatino'
p1584
sg16
I700
sg17
g13
sg18
g13
sg19
g1396
sg21
g22
sbag7
(g8
g9
NtRp1585
(dp1586
g12
g29
sg14
S'Helvetica'
p1587
sg16
I500
sg17
g13
sg18
g13
sg19
g1397
sg21
g22
sbag7
(g8
g9
NtRp1588
(dp1589
g12
g29
sg14
S'Computer Modern'
p1590
sg16
I500
sg17
g13
sg18
g13
sg19
g1398
sg21
g22
sbag7
(g8
g9
NtRp1591
(dp1592
g12
g29
sg14
S'Helvetica'
p1593
sg16
I700
sg17
g13
sg18
g13
sg19
g1399
sg21
g22
sbag7
(g8
g9
NtRp1594
(dp1595
g12
g29
sg14
S'New Century Schoolbook'
p1596
sg16
I700
sg17
g13
sg18
g13
sg19
g1400
sg21
g22
sbag7
(g8
g9
NtRp1597
(dp1598
g12
g13
sg14
S'Helvetica'
p1599
sg16
I200
sg17
g13
sg18
g13
sg19
g1401
sg21
g22
sbag7
(g8
g9
NtRp1600
(dp1601
g12
g29
sg14
S'Utopia'
p1602
sg16
I400
sg17
g13
sg18
g13
sg19
g1402
sg21
g22
sbag7
(g8
g9
NtRp1603
(dp1604
g12
g13
sg14
S'Helvetica'
p1605
sg16
I500
sg17
g13
sg18
g13
sg19
g1403
sg21
g22
sbag7
(g8
g9
NtRp1606
(dp1607
g12
g13
sg14
S'Helvetica'
p1608
sg16
I500
sg17
g13
sg18
g13
sg19
g1404
sg21
g22
sbag7
(g8
g9
NtRp1609
(dp1610
g12
g13
sg14
S'Palatino'
p1611
sg16
I700
sg17
g13
sg18
g13
sg19
g1405
sg21
g22
sbag7
(g8
g9
NtRp1612
(dp1613
g12
g13
sg14
S'Symbol'
p1614
sg16
I500
sg17
g13
sg18
g13
sg19
g1406
sg21
g22
sbag7
(g8
g9
NtRp1615
(dp1616
g12
g13
sg14
S'Helvetica'
p1617
sg16
I700
sg17
g13
sg18
g13
sg19
g1407
sg21
g22
sbag7
(g8
g9
NtRp1618
(dp1619
g12
g13
sg14
S'Utopia'
p1620
sg16
I700
sg17
g13
sg18
g13
sg19
g1408
sg21
g22
sbag7
(g8
g9
NtRp1621
(dp1622
g12
g13
sg14
S'Courier 10 Pitch'
p1623
sg16
I700
sg17
g13
sg18
g13
sg19
g1409
sg21
g22
sbag7
(g8
g9
NtRp1624
(dp1625
g12
g29
sg14
S'Luxi Serif'
p1626
sg16
I700
sg17
g13
sg18
g13
sg19
g1410
sg21
g22
sbag7
(g8
g9
NtRp1627
(dp1628
g12
g29
sg14
S'Bitstream Charter'
p1629
sg16
I400
sg17
g13
sg18
g13
sg19
g1411
sg21
g22
sbag7
(g8
g9
NtRp1630
(dp1631
g12
g13
sg14
S'Utopia'
p1632
sg16
I400
sg17
g13
sg18
g13
sg19
g1412
sg21
g22
sbag7
(g8
g9
NtRp1633
(dp1634
g12
g29
sg14
S'Courier 10 Pitch'
p1635
sg16
I400
sg17
g13
sg18
g13
sg19
g1413
sg21
g22
sbag7
(g8
g9
NtRp1636
(dp1637
g12
g13
sg14
S'Bitstream Charter'
p1638
sg16
I400
sg17
g13
sg18
g13
sg19
g1414
sg21
g22
sbag7
(g8
g9
NtRp1639
(dp1640
g12
g29
sg14
S'Bitstream Charter'
p1641
sg16
I700
sg17
g13
sg18
g13
sg19
g1415
sg21
g22
sbag7
(g8
g9
NtRp1642
(dp1643
g12
g13
sg14
S'Luxi Sans'
p1644
sg16
I400
sg17
g13
sg18
g13
sg19
g1416
sg21
g22
sbag7
(g8
g9
NtRp1645
(dp1646
g12
g13
sg14
S'Courier'
p1647
sg16
I700
sg17
g13
sg18
g13
sg19
g1417
sg21
g22
sbag7
(g8
g9
NtRp1648
(dp1649
g12
g13
sg14
S'Courier 10 Pitch'
p1650
sg16
I400
sg17
g13
sg18
g13
sg19
g1418
sg21
g22
sbag7
(g8
g9
NtRp1651
(dp1652
g12
g29
sg14
S'Utopia'
p1653
sg16
I400
sg17
g13
sg18
g13
sg19
g1419
sg21
g22
sbag7
(g8
g9
NtRp1654
(dp1655
g12
g13
sg14
S'Luxi Serif'
p1656
sg16
I700
sg17
g13
sg18
g13
sg19
g1420
sg21
g22
sbag7
(g8
g9
NtRp1657
(dp1658
g12
g29
sg14
S'Luxi Sans'
p1659
sg16
I400
sg17
g13
sg18
g13
sg19
g1421
sg21
g22
sbag7
(g8
g9
NtRp1660
(dp1661
g12
g13
sg14
S'Luxi Sans'
p1662
sg16
I700
sg17
g13
sg18
g13
sg19
g1422
sg21
g22
sbag7
(g8
g9
NtRp1663
(dp1664
g12
g29
sg14
S'Luxi Sans'
p1665
sg16
I700
sg17
g13
sg18
g13
sg19
g1423
sg21
g22
sbag7
(g8
g9
NtRp1666
(dp1667
g12
g29
sg14
S'Courier'
p1668
sg16
I700
sg17
g13
sg18
g13
sg19
g1424
sg21
g22
sbag7
(g8
g9
NtRp1669
(dp1670
g12
g13
sg14
S'Bitstream Charter'
p1671
sg16
I700
sg17
g13
sg18
g13
sg19
g1425
sg21
g22
sbag7
(g8
g9
NtRp1672
(dp1673
g12
g13
sg14
S'Luxi Serif'
p1674
sg16
I400
sg17
g13
sg18
g13
sg19
g1426
sg21
g22
sbag7
(g8
g9
NtRp1675
(dp1676
g12
g29
sg14
S'Courier 10 Pitch'
p1677
sg16
I700
sg17
g13
sg18
g13
sg19
g1427
sg21
g22
sbag7
(g8
g9
NtRp1678
(dp1679
g12
g29
sg14
S'Luxi Mono'
p1680
sg16
I700
sg17
g13
sg18
g13
sg19
g1428
sg21
g22
sbag7
(g8
g9
NtRp1681
(dp1682
g12
g13
sg14
S'Luxi Mono'
p1683
sg16
I700
sg17
g13
sg18
g13
sg19
g1429
sg21
g22
sbag7
(g8
g9
NtRp1684
(dp1685
g12
g29
sg14
S'Luxi Mono'
p1686
sg16
I400
sg17
g13
sg18
g13
sg19
g1430
sg21
g22
sbag7
(g8
g9
NtRp1687
(dp1688
g12
g13
sg14
S'Luxi Mono'
p1689
sg16
I400
sg17
g13
sg18
g13
sg19
g1431
sg21
g22
sbag7
(g8
g9
NtRp1690
(dp1691
g12
g29
sg14
S'Luxi Serif'
p1692
sg16
I400
sg17
g13
sg18
g13
sg19
g1432
sg21
g22
sbag7
(g8
g9
NtRp1693
(dp1694
g12
g29
sg14
S'Utopia'
p1695
sg16
I700
sg17
g13
sg18
g13
sg19
g1433
sg21
g22
sbag7
(g8
g9
NtRp1696
(dp1697
g12
g13
sg14
S'Courier'
p1698
sg16
I400
sg17
g13
sg18
g13
sg19
g1434
sg21
g22
sbag7
(g8
g9
NtRp1699
(dp1700
g12
g29
sg14
S'Courier'
p1701
sg16
I400
sg17
g13
sg18
g13
sg19
g1435
sg21
g22
sbasb.